

Microchip MPLAB XC8 Assembler V2.32 build 20210201212658 
                                                                                               Fri Jul 02 12:21:08 2021

Microchip MPLAB XC8 C Compiler v2.32 (Free license) build 20210201212658 Og1 
     1                           	processor	18F27Q84
     2                           	fnconf	rparam,??,?,0
     3                           	pagewidth 120
     4                           	opt	flic
     5                           	psect	idataCOMRAM,global,class=CODE,delta=1,noexec
     6                           	psect	idataBANK5,global,class=CODE,delta=1,noexec
     7                           	psect	smallconst,global,reloc=2,class=SMALLCONST,delta=1,noexec
     8                           	psect	nvCOMRAM,global,class=COMRAM,space=1,delta=1,lowdata,noexec
     9                           	psect	cinit,global,reloc=2,class=CODE,delta=1
    10                           	psect	bssCOMRAM,global,class=COMRAM,space=1,delta=1,lowdata,noexec
    11                           	psect	dataCOMRAM,global,class=COMRAM,space=1,delta=1,lowdata,noexec
    12                           	psect	bssBANK5,global,class=BANK5,space=1,delta=1,lowdata,noexec
    13                           	psect	dataBANK5,global,class=BANK5,space=1,delta=1,lowdata,noexec
    14                           	psect	cstackBANK5,global,class=BANK5,space=1,delta=1,lowdata,noexec
    15                           	psect	cstackCOMRAM,global,class=COMRAM,space=1,delta=1,lowdata,noexec
    16                           	psect	text0,global,reloc=2,class=CODE,delta=1
    17                           	psect	text1,global,reloc=2,class=CODE,delta=1
    18                           	psect	text2,global,reloc=2,class=CODE,delta=1
    19                           	psect	text3,global,reloc=2,class=CODE,delta=1
    20                           	psect	text4,global,reloc=2,class=CODE,delta=1
    21                           	psect	text5,global,reloc=2,class=CODE,delta=1
    22                           	psect	text6,global,reloc=2,class=CODE,delta=1
    23                           	psect	text7,global,reloc=2,class=CODE,delta=1
    24                           	psect	text8,global,reloc=2,class=CODE,delta=1
    25                           	psect	text9,global,reloc=2,class=CODE,delta=1
    26                           	psect	text10,global,reloc=2,class=CODE,delta=1
    27                           	psect	text11,global,reloc=2,class=CODE,delta=1
    28                           	psect	text12,global,reloc=2,class=CODE,delta=1
    29                           	psect	text13,global,reloc=2,class=CODE,delta=1
    30                           	psect	text14,global,reloc=2,class=CODE,delta=1
    31                           	psect	text15,global,reloc=2,class=CODE,delta=1
    32                           	psect	text16,global,reloc=2,class=CODE,delta=1
    33                           	psect	text17,global,reloc=2,class=CODE,delta=1
    34                           	psect	text18,global,reloc=2,class=CODE,delta=1
    35                           	psect	text19,global,reloc=2,class=CODE,delta=1
    36                           	psect	text20,global,reloc=2,class=CODE,delta=1
    37                           	psect	text21,global,reloc=2,class=CODE,delta=1
    38                           	psect	text22,global,reloc=2,class=CODE,delta=1
    39                           	psect	text23,global,reloc=2,class=CODE,delta=1
    40                           	psect	text24,global,reloc=2,class=CODE,delta=1
    41                           	psect	text25,global,reloc=2,class=CODE,delta=1
    42                           	psect	text26,global,reloc=2,class=CODE,delta=1
    43                           	psect	text27,global,reloc=2,class=CODE,delta=1
    44                           	psect	text28,global,reloc=2,class=CODE,delta=1
    45                           	psect	text29,global,reloc=2,class=CODE,delta=1
    46                           	psect	text30,global,reloc=2,class=CODE,delta=1
    47                           	psect	text31,global,reloc=2,class=CODE,delta=1
    48                           	psect	text32,global,reloc=2,class=CODE,delta=1
    49                           	psect	text33,global,reloc=2,class=CODE,delta=1
    50                           	psect	text34,global,reloc=2,class=CODE,delta=1
    51                           	psect	text35,global,reloc=2,class=CODE,delta=1
    52                           	psect	text36,global,reloc=2,class=CODE,delta=1
    53                           	psect	text37,global,reloc=2,class=CODE,delta=1
    54                           	psect	text38,global,reloc=2,class=CODE,delta=1
    55                           	psect	text39,global,reloc=2,class=CODE,delta=1
    56                           	psect	text40,global,reloc=2,class=CODE,delta=1
    57                           	psect	text41,global,reloc=2,class=CODE,delta=1,group=2
    58                           	psect	text42,global,reloc=2,class=CODE,delta=1
    59                           	psect	text43,global,reloc=2,class=CODE,delta=1
    60                           	psect	text44,global,reloc=2,class=CODE,delta=1
    61                           	psect	text45,global,reloc=2,class=CODE,delta=1
    62                           	psect	text46,global,reloc=2,class=CODE,delta=1
    63                           	psect	text47,global,reloc=2,class=CODE,delta=1
    64                           	psect	text48,global,reloc=2,class=CODE,delta=1
    65                           	psect	text49,global,reloc=2,class=CODE,delta=1
    66                           	psect	text50,global,reloc=2,class=CODE,delta=1
    67                           	psect	text51,global,reloc=2,class=CODE,delta=1
    68                           	psect	ivt0x8,global,reloc=2,class=CODE,delta=1,noexec,keep,optim=
    69                           	psect	intsave_regs,global,class=BIGRAM,space=1,delta=1,noexec
    70                           	psect	text52,global,reloc=2,class=CODE,delta=1
    71                           	psect	rparam,global,class=COMRAM,space=1,delta=1,noexec
    72                           	psect	idloc,global,abs,ovrld,class=IDLOC,space=5,delta=1,noexec
    73                           	psect	config,global,abs,ovrld,class=CONFIG,space=4,delta=1,noexec
    74  0000                     
    75                           ; Version 2.32
    76                           ; Generated 10/02/2021 GMT
    77                           ; 
    78                           ; Copyright © 2021, Microchip Technology Inc. and its subsidiaries ("Microchip")
    79                           ; All rights reserved.
    80                           ; 
    81                           ; This software is developed by Microchip Technology Inc. and its subsidiaries ("Microch
      +                          ip").
    82                           ; 
    83                           ; Redistribution and use in source and binary forms, with or without modification, are
    84                           ; permitted provided that the following conditions are met:
    85                           ; 
    86                           ;     1. Redistributions of source code must retain the above copyright notice, this lis
      +                          t of
    87                           ;        conditions and the following disclaimer.
    88                           ; 
    89                           ;     2. Redistributions in binary form must reproduce the above copyright notice, this 
      +                          list
    90                           ;        of conditions and the following disclaimer in the documentation and/or other
    91                           ;        materials provided with the distribution. Publication is not required when
    92                           ;        this file is used in an embedded application.
    93                           ; 
    94                           ;     3. Microchip's name may not be used to endorse or promote products derived from th
      +                          is
    95                           ;        software without specific prior written permission.
    96                           ; 
    97                           ; THIS SOFTWARE IS PROVIDED BY MICROCHIP "AS IS" AND ANY EXPRESS OR IMPLIED WARRANTIES,
    98                           ; INCLUDING, BUT NOT LIMITED TO, THE IMPLIED WARRANTIES OF MERCHANTABILITY AND FITNESS F
      +                          OR
    99                           ; PURPOSE ARE DISCLAIMED.  IN NO EVENT SHALL MICROCHIP BE LIABLE FOR ANY DIRECT, INDIREC
      +                          T,
   100                           ; INCIDENTAL, SPECIAL, EXEMPLARY, OR CONSEQUENTIAL DAMAGES (INCLUDING BUT NOT LIMITED TO
   101                           ; PROCUREMENT OF SUBSTITUTE GOODS OR SERVICES; LOSS OF USE, DATA OR PROFITS; OR BUSINESS
   102                           ; INTERRUPTION) HOWSOEVER CAUSED AND ON ANY THEORY OF LIABILITY, WHETHER IN CONTRACT, ST
      +                          RICT
   103                           ; LIABILITY, OR TORT (INCLUDING NEGLIGENCE OR OTHERWISE) ARISING IN ANY WAY OUT OF THE U
      +                          SE OF
   104                           ; THIS SOFTWARE, EVEN IF ADVISED OF THE POSSIBILITY OF SUCH DAMAGE.
   105                           ; 
   106                           ; 
   107                           ; Code-generator required, PIC18F27Q84 Definitions
   108                           ; 
   109                           ; SFR Addresses
   110  0000                     
   111                           	psect	idataCOMRAM
   112  004A72                     __pidataCOMRAM:
   113                           	callstack 0
   114                           
   115                           ;initializer for TU16A__C1_TransmitInterruptHandler@F22653
   116  004A72  00                 	db	0
   117  004A73  11                 	db	17
   118  004A74  22                 	db	34
   119  004A75  33                 	db	51
   120  004A76  44                 	db	68
   121  004A77  55                 	db	85
   122  004A78  66                 	db	102
   123  004A79  77                 	db	119
   124                           
   125                           	psect	idataBANK5
   126  004A7E                     __pidataBANK5:
   127                           	callstack 0
   128                           
   129                           ;initializer for _rxFifos
   130  004A7E  01                 	db	1
   131  004A7F  00                 	db	0
   132                           
   133                           	psect	smallconst
   134  003800                     __psmallconst:
   135                           	callstack 0
   136  003800  00                 	db	0
   137  003801                     _DLC_BYTES:
   138                           	callstack 0
   139  003801  00                 	db	0
   140  003802  01                 	db	1
   141  003803  02                 	db	2
   142  003804  03                 	db	3
   143  003805  04                 	db	4
   144  003806  05                 	db	5
   145  003807  06                 	db	6
   146  003808  07                 	db	7
   147  003809  08                 	db	8
   148  00380A                     __end_of_DLC_BYTES:
   149                           	callstack 0
   150  00380A  50                 	db	80
   151  00380B  01                 	db	1
   152  00380C                     __end_of_FIFO:
   153                           	callstack 0
   154  00380C  00                 	db	0	; dummy byte at the end
   155  0000                     
   156                           	psect	nvCOMRAM
   157  000558                     __pnvCOMRAM:
   158                           	callstack 0
   159  000558                     _TU16A_InterruptHandler:
   160                           	callstack 0
   161  000558                     	ds	3
   162  0000                     _PMD8	set	104
   163  0000                     _PMD7	set	103
   164  0000                     _PMD6	set	102
   165  0000                     _PMD5	set	101
   166  0000                     _PMD4	set	100
   167  0000                     _PMD3	set	99
   168  0000                     _PMD2	set	98
   169  0000                     _PMD1	set	97
   170  0000                     _PMD0	set	96
   171  0000                     _OSCTUNE	set	176
   172  0000                     _OSCFRQ	set	177
   173  0000                     _OSCEN	set	179
   174  0000                     _OSCCON3	set	175
   175  0000                     _OSCCON1	set	173
   176  0000                     _PLLR	set	1424
   177  0000                     _C1FIFOBA	set	332
   178  0000                     _C1FIFOSTA1Lbits	set	352
   179  0000                     _C1TXQSTALbits	set	340
   180  0000                     _C1INTLbits	set	284
   181  0000                     _C1INTTbits	set	287
   182  0000                     _C1TRECUbits	set	310
   183  0000                     _C1CONUbits	set	258
   184  0000                     _C1INTHbits	set	285
   185  0000                     _C1CONTbits	set	259
   186  0000                     _C1CONU	set	258
   187  0000                     _C1CONH	set	257
   188  0000                     _C1CONL	set	256
   189  0000                     _C1CONHbits	set	257
   190  0000                     _C1INTT	set	287
   191  0000                     _C1INTU	set	286
   192  0000                     _C1INTH	set	285
   193  0000                     _C1INTL	set	284
   194  0000                     _C1NBTCFGT	set	263
   195  0000                     _C1NBTCFGU	set	262
   196  0000                     _C1NBTCFGH	set	261
   197  0000                     _C1NBTCFGL	set	260
   198  0000                     _C1TXQCONT	set	339
   199  0000                     _C1TXQCONU	set	338
   200  0000                     _C1TXQCONH	set	337
   201  0000                     _C1FLTCON0L	set	384
   202  0000                     _C1MASK0T	set	403
   203  0000                     _C1MASK0U	set	402
   204  0000                     _C1MASK0H	set	401
   205  0000                     _C1MASK0L	set	400
   206  0000                     _C1FLTOBJ0T	set	399
   207  0000                     _C1FLTOBJ0U	set	398
   208  0000                     _C1FLTOBJ0H	set	397
   209  0000                     _C1FLTOBJ0L	set	396
   210  0000                     _C1INTUbits	set	286
   211  0000                     _C1FIFOCON1T	set	351
   212  0000                     _C1FIFOCON1U	set	350
   213  0000                     _C1FIFOCON1H	set	349
   214  0000                     _C1FIFOCON1L	set	348
   215  0000                     _C1TXQCONL	set	336
   216  0000                     _CANRXPPS	set	573
   217  0000                     _RC4PPS	set	533
   218  0000                     _TUIN0PPS	set	587
   219  0000                     _TU16ACRL	set	907
   220  0000                     _TU16ACRH	set	908
   221  0000                     _TU16ACON0	set	903
   222  0000                     _TU16ACON1bits	set	904
   223  0000                     _TUCHAIN	set	955
   224  0000                     _TU16ATMRL	set	907
   225  0000                     _TU16ATMRH	set	908
   226  0000                     _TU16APRL	set	909
   227  0000                     _TU16APRH	set	910
   228  0000                     _TU16APS	set	906
   229  0000                     _TU16AERS	set	912
   230  0000                     _TU16ACLK	set	911
   231  0000                     _TU16AHLT	set	905
   232  0000                     _TU16ACON1	set	904
   233  0000                     _TU16ACON0bits	set	903
   234  0000                     _INLVLE	set	1060
   235  0000                     _INLVLC	set	1044
   236  0000                     _INLVLB	set	1036
   237  0000                     _INLVLA	set	1028
   238  0000                     _SLRCONC	set	1043
   239  0000                     _SLRCONB	set	1035
   240  0000                     _SLRCONA	set	1027
   241  0000                     _ODCONC	set	1042
   242  0000                     _ODCONB	set	1034
   243  0000                     _ODCONA	set	1026
   244  0000                     _WPUC	set	1041
   245  0000                     _WPUA	set	1025
   246  0000                     _WPUB	set	1033
   247  0000                     _WPUE	set	1057
   248  0000                     _ANSELA	set	1024
   249  0000                     _ANSELB	set	1032
   250  0000                     _ANSELC	set	1040
   251  0000                     _LATCbits	set	1216
   252  0000                     _PIR4bits	set	1202
   253  0000                     _PIE4bits	set	1186
   254  0000                     _PIR0bits	set	1198
   255  0000                     _PIE0bits	set	1182
   256  0000                     _INTCON0bits	set	1238
   257  0000                     _TRISC	set	1224
   258  0000                     _TRISB	set	1223
   259  0000                     _TRISA	set	1222
   260  0000                     _TRISE	set	1226
   261  0000                     _LATC	set	1216
   262  0000                     _LATB	set	1215
   263  0000                     _LATA	set	1214
   264                           
   265                           ; #config settings
   266                           
   267                           	psect	cinit
   268  004514                     __pcinit:
   269                           	callstack 0
   270  004514                     start_initialization:
   271                           	callstack 0
   272  004514                     __initialization:
   273                           	callstack 0
   274                           
   275                           ; Initialize objects allocated to BANK5 (2 bytes)
   276                           ; load TBLPTR registers with __pidataBANK5
   277  004514  0E7E               	movlw	low __pidataBANK5
   278  004516  6EF6               	movwf	tblptrl,c
   279  004518  0E4A               	movlw	high __pidataBANK5
   280  00451A  6EF7               	movwf	tblptrh,c
   281  00451C  0E00               	movlw	low (__pidataBANK5 shr (0+16))
   282  00451E  6EF8               	movwf	tblptru,c
   283  004520  0009               	tblrd		*+	;fetch initializer
   284  004522  0061 F3D4  F578    	movff	tablat,__pdataBANK5
   285  004528  0009               	tblrd		*+	;fetch initializer
   286  00452A  0061 F3D4  F579    	movff	tablat,__pdataBANK5+1
   287                           
   288                           ; Initialize objects allocated to COMRAM (8 bytes)
   289                           ; load TBLPTR registers with __pidataCOMRAM
   290  004530  0E72               	movlw	low __pidataCOMRAM
   291  004532  6EF6               	movwf	tblptrl,c
   292  004534  0E4A               	movlw	high __pidataCOMRAM
   293  004536  6EF7               	movwf	tblptrh,c
   294  004538  0E00               	movlw	low (__pidataCOMRAM shr (0+16))
   295  00453A  6EF8               	movwf	tblptru,c
   296  00453C  EE01  F150         	lfsr	0,__pdataCOMRAM
   297  004540  EE10 F008          	lfsr	1,8
   298  004544                     copy_data0:
   299  004544  0009               	tblrd		*+
   300  004546  C4F5 F4EE          	movff	tablat,postinc0
   301  00454A  50E5               	movf	postdec1,w,c
   302  00454C  50E1               	movf	fsr1l,w,c
   303  00454E  E1FA               	bnz	copy_data0
   304                           
   305                           ; Clear objects allocated to BANK5 (21 bytes)
   306  004550  EE01  F160         	lfsr	0,__pbssBANK5
   307  004554  0E15               	movlw	21
   308  004556                     clear_0:
   309  004556  6AEE               	clrf	postinc0,c
   310  004558  06E8               	decf	wreg,f,c
   311  00455A  E1FD               	bnz	clear_0
   312                           
   313                           ; Clear objects allocated to COMRAM (11 bytes)
   314  00455C  EE01  F145         	lfsr	0,__pbssCOMRAM
   315  004560  0E0B               	movlw	11
   316  004562                     clear_1:
   317  004562  6AEE               	clrf	postinc0,c
   318  004564  06E8               	decf	wreg,f,c
   319  004566  E1FD               	bnz	clear_1
   320                           
   321                           ;
   322                           ; Setup IVTBASE
   323                           ;
   324  004568  0104               	movlb	4
   325  00456A  0E08               	movlw	(ivt0x8_base shr 0)& (0+255)
   326  00456C  6F5D               	movwf	93,b
   327  00456E  0E00               	movlw	(ivt0x8_base shr (0+8))& (0+255)
   328  004570  6F5E               	movwf	94,b
   329  004572  0E00               	movlw	(ivt0x8_base shr (0+16))& (0+255)
   330  004574  6F5F               	movwf	95,b
   331  004576                     end_of_initialization:
   332                           	callstack 0
   333  004576                     __end_of__initialization:
   334                           	callstack 0
   335  004576  0100               	movlb	0
   336  004578  EFE7  F024         	goto	_main	;jump to C main() function
   337                           
   338                           	psect	bssCOMRAM
   339  000545                     __pbssCOMRAM:
   340                           	callstack 0
   341  000545                     _CAN1_FIFO1NotEmptyHandler:
   342                           	callstack 0
   343  000545                     	ds	3
   344  000548                     _rxMsgData:
   345                           	callstack 0
   346  000548                     	ds	8
   347                           
   348                           	psect	dataCOMRAM
   349  000550                     __pdataCOMRAM:
   350                           	callstack 0
   351  000550                     TU16A__C1_TransmitInterruptHandler@F22653:
   352                           	callstack 0
   353  000550                     	ds	8
   354                           
   355                           	psect	bssBANK5
   356  000560                     __pbssBANK5:
   357                           	callstack 0
   358  000560                     _CAN1_RxBufferOverflowHandler:
   359                           	callstack 0
   360  000560                     	ds	3
   361  000563                     _CAN1_TxAttemptHandler:
   362                           	callstack 0
   363  000563                     	ds	3
   364  000566                     _CAN1_SystemErrorHandler:
   365                           	callstack 0
   366  000566                     	ds	3
   367  000569                     _CAN1_ModeChangeHandler:
   368                           	callstack 0
   369  000569                     	ds	3
   370  00056C                     _CAN1_BusErrorHandler:
   371                           	callstack 0
   372  00056C                     	ds	3
   373  00056F                     _CAN1_BusWakeUpActivityHandler:
   374                           	callstack 0
   375  00056F                     	ds	3
   376  000572                     _CAN1_InvalidMessageHandler:
   377                           	callstack 0
   378  000572                     	ds	3
   379                           
   380                           	psect	dataBANK5
   381  000578                     __pdataBANK5:
   382                           	callstack 0
   383  000578                     _rxFifos:
   384                           	callstack 0
   385  000578                     	ds	2
   386                           
   387                           	psect	cstackBANK5
   388  000575                     __pcstackBANK5:
   389                           	callstack 0
   390  000575                     CAN1_RX_FIFO_ResetInfo@index:
   391                           	callstack 0
   392  000575                     CAN1_OperationModeSet@opMode:
   393                           	callstack 0
   394  000575                     CAN1_SetInvalidMessageInterruptHandler@handler:
   395                           	callstack 0
   396  000575                     CAN1_SetBusWakeUpActivityInterruptHandler@handler:
   397                           	callstack 0
   398  000575                     CAN1_SetBusErrorInterruptHandler@handler:
   399                           	callstack 0
   400  000575                     CAN1_SetModeChangeInterruptHandler@handler:
   401                           	callstack 0
   402  000575                     CAN1_SetSystemErrorInterruptHandler@handler:
   403                           	callstack 0
   404  000575                     CAN1_SetTxAttemptInterruptHandler@handler:
   405                           	callstack 0
   406  000575                     CAN1_SetRxBufferOverFlowInterruptHandler@handler:
   407                           	callstack 0
   408  000575                     CAN1_SetFIFO1NotEmptyHandler@handler:
   409                           	callstack 0
   410  000575                     TU16A_SetInterruptHandler@InterruptHandler:
   411                           	callstack 0
   412                           
   413                           ; 3 bytes @ 0x0
   414  000575                     	ds	1
   415  000576                     CAN1_OperationModeSet@status:
   416                           	callstack 0
   417                           
   418                           ; 1 bytes @ 0x1
   419  000576                     	ds	1
   420  000577                     CAN1_OperationModeSet@requestMode:
   421                           	callstack 0
   422                           
   423                           ; 1 bytes @ 0x2
   424  000577                     	ds	1
   425  000578                     
   426                           ; 1 bytes @ 0x3
   427                           
   428                           	psect	cstackCOMRAM
   429  000501                     __pcstackCOMRAM:
   430                           	callstack 0
   431  000501                     ??_GetRxFifoDepth:
   432  000501                     GetRxFifoStatus@validChannel:
   433                           	callstack 0
   434  000501                     _isTxChannel$861:
   435                           	callstack 0
   436  000501                     GetTxFifoStatus@validChannel:
   437                           	callstack 0
   438  000501                     memcpy@d1:
   439                           	callstack 0
   440                           
   441                           ; 2 bytes @ 0x0
   442  000501                     	ds	1
   443  000502                     GetRxFifoDepth@validChannel:
   444                           	callstack 0
   445  000502                     isTxChannel@channel:
   446                           	callstack 0
   447  000502                     ValidateTransmission@txCanMsg:
   448                           	callstack 0
   449                           
   450                           ; 2 bytes @ 0x1
   451  000502                     	ds	1
   452  000503                     CAN1_ReceivedMessageCountGet@totalMsgObj:
   453                           	callstack 0
   454  000503                     CAN1_TransmitFIFOStatusGet@status:
   455                           	callstack 0
   456  000503                     memcpy@s1:
   457                           	callstack 0
   458                           
   459                           ; 2 bytes @ 0x2
   460  000503                     	ds	1
   461  000504                     ??_ValidateTransmission:
   462  000504                     CAN1_ReceivedMessageCountGet@numOfMsg:
   463                           	callstack 0
   464  000504                     CAN1_TransmitFIFOStatusGet@fifoChannel:
   465                           	callstack 0
   466                           
   467                           ; 1 bytes @ 0x3
   468  000504                     	ds	1
   469  000505                     CAN1_ReceivedMessageCountGet@rxMsgStatus:
   470                           	callstack 0
   471  000505                     memcpy@n:
   472                           	callstack 0
   473                           
   474                           ; 2 bytes @ 0x4
   475  000505                     	ds	1
   476  000506                     CAN1_ReceivedMessageCountGet@channel:
   477                           	callstack 0
   478                           
   479                           ; 1 bytes @ 0x5
   480  000506                     	ds	1
   481  000507                     CAN1_ReceivedMessageCountGet@fifoDepth:
   482                           	callstack 0
   483  000507                     ValidateTransmission@validChannel:
   484                           	callstack 0
   485  000507                     memcpy@d:
   486                           	callstack 0
   487                           
   488                           ; 2 bytes @ 0x6
   489  000507                     	ds	1
   490  000508                     CAN1_ReceivedMessageCountGet@fifoTail:
   491                           	callstack 0
   492  000508                     ValidateTransmission@txMsgStatus:
   493                           	callstack 0
   494                           
   495                           ; 1 bytes @ 0x7
   496  000508                     	ds	1
   497  000509                     CAN1_ReceivedMessageCountGet@fifoHead:
   498                           	callstack 0
   499  000509                     ValidateTransmission@field:
   500                           	callstack 0
   501  000509                     memcpy@s:
   502                           	callstack 0
   503                           
   504                           ; 2 bytes @ 0x8
   505  000509                     	ds	1
   506  00050A                     CAN1_ReceivedMessageCountGet@index:
   507                           	callstack 0
   508                           
   509                           ; 1 bytes @ 0x9
   510  00050A                     	ds	1
   511  00050B                     memcpy@tmp:
   512                           	callstack 0
   513                           
   514                           ; 1 bytes @ 0xA
   515  00050B                     	ds	1
   516  00050C                     ReadMessageFromFifo@rxFifoObj:
   517                           	callstack 0
   518  00050C                     WriteMessageToFifo@txFifoObj:
   519                           	callstack 0
   520                           
   521                           ; 2 bytes @ 0xB
   522  00050C                     	ds	2
   523  00050E                     ReadMessageFromFifo@rxCanMsg:
   524                           	callstack 0
   525  00050E                     WriteMessageToFifo@txCanMsg:
   526                           	callstack 0
   527                           
   528                           ; 2 bytes @ 0xD
   529  00050E                     	ds	2
   530  000510                     ??_ReadMessageFromFifo:
   531  000510                     ??_WriteMessageToFifo:
   532                           
   533                           ; 1 bytes @ 0xF
   534  000510                     	ds	2
   535  000512                     WriteMessageToFifo@status:
   536                           	callstack 0
   537  000512                     ReadMessageFromFifo@msgId:
   538                           	callstack 0
   539                           
   540                           ; 4 bytes @ 0x11
   541  000512                     	ds	1
   542  000513                     WriteMessageToFifo@msgId:
   543                           	callstack 0
   544                           
   545                           ; 4 bytes @ 0x12
   546  000513                     	ds	3
   547  000516                     ReadMessageFromFifo@status:
   548                           	callstack 0
   549                           
   550                           ; 1 bytes @ 0x15
   551  000516                     	ds	1
   552  000517                     Receive@channel:
   553                           	callstack 0
   554  000517                     CAN1_Transmit@txCanMsg:
   555                           	callstack 0
   556                           
   557                           ; 2 bytes @ 0x16
   558  000517                     	ds	1
   559  000518                     Receive@rxCanMsg:
   560                           	callstack 0
   561                           
   562                           ; 2 bytes @ 0x17
   563  000518                     	ds	1
   564  000519                     CAN1_Transmit@status:
   565                           	callstack 0
   566                           
   567                           ; 1 bytes @ 0x18
   568  000519                     	ds	1
   569  00051A                     ??_Receive:
   570  00051A                     CAN1_Transmit@txFifoObj:
   571                           	callstack 0
   572                           
   573                           ; 2 bytes @ 0x19
   574  00051A                     	ds	2
   575  00051C                     Receive@status:
   576                           	callstack 0
   577  00051C                     CAN1_Transmit@fifoChannel:
   578                           	callstack 0
   579                           
   580                           ; 1 bytes @ 0x1B
   581  00051C                     	ds	1
   582  00051D                     ??_TU16A__C1_TransmitInterruptHandler:
   583  00051D                     Receive@rxFifoObj:
   584                           	callstack 0
   585                           
   586                           ; 2 bytes @ 0x1C
   587  00051D                     	ds	1
   588  00051E                     TU16A__C1_TransmitInterruptHandler@Transmit_Data:
   589                           	callstack 0
   590                           
   591                           ; 8 bytes @ 0x1D
   592  00051E                     	ds	1
   593  00051F                     Receive@rxMsgStatus:
   594                           	callstack 0
   595                           
   596                           ; 1 bytes @ 0x1E
   597  00051F                     	ds	1
   598  000520                     Receive@index:
   599                           	callstack 0
   600                           
   601                           ; 1 bytes @ 0x1F
   602  000520                     	ds	1
   603  000521                     CAN1_ReceiveFrom@rxCanMsg:
   604                           	callstack 0
   605                           
   606                           ; 2 bytes @ 0x20
   607  000521                     	ds	2
   608  000523                     
   609                           ; 1 bytes @ 0x22
   610  000523                     	ds	1
   611  000524                     CAN1_ReceiveFrom@status:
   612                           	callstack 0
   613                           
   614                           ; 1 bytes @ 0x23
   615  000524                     	ds	1
   616  000525                     CAN1_ReceiveFrom@channel:
   617                           	callstack 0
   618                           
   619                           ; 1 bytes @ 0x24
   620  000525                     	ds	1
   621  000526                     CAN1_ReceiveFrom@index:
   622                           	callstack 0
   623  000526                     TU16A__C1_TransmitInterruptHandler@Transmission:
   624                           	callstack 0
   625                           
   626                           ; 7 bytes @ 0x25
   627  000526                     	ds	1
   628  000527                     ??_C1__ReceiveFIFO1NotEmptyHandler:
   629                           
   630                           ; 1 bytes @ 0x26
   631  000527                     	ds	1
   632  000528                     C1__ReceiveFIFO1NotEmptyHandler@numBytes:
   633                           	callstack 0
   634                           
   635                           ; 1 bytes @ 0x27
   636  000528                     	ds	1
   637  000529                     C1__ReceiveFIFO1NotEmptyHandler@mode:
   638                           	callstack 0
   639                           
   640                           ; 1 bytes @ 0x28
   641  000529                     	ds	1
   642  00052A                     C1__ReceiveFIFO1NotEmptyHandler@data_Out:
   643                           	callstack 0
   644                           
   645                           ; 8 bytes @ 0x29
   646  00052A                     	ds	3
   647  00052D                     
   648                           ; 1 bytes @ 0x2C
   649  00052D                     	ds	5
   650  000532                     C1__ReceiveFIFO1NotEmptyHandler@Currently_Processing:
   651                           	callstack 0
   652                           
   653                           ; 7 bytes @ 0x31
   654  000532                     	ds	7
   655  000539                     C1__ReceiveFIFO1NotEmptyHandler@PID:
   656                           	callstack 0
   657                           
   658                           ; 1 bytes @ 0x38
   659  000539                     	ds	1
   660  00053A                     C1__ReceiveFIFO1NotEmptyHandler@Return_Message:
   661                           	callstack 0
   662                           
   663                           ; 7 bytes @ 0x39
   664  00053A                     	ds	7
   665  000541                     ??_INTERRUPT_InterruptManager:
   666                           
   667                           ; 1 bytes @ 0x40
   668  000541                     	ds	4
   669                           
   670 ;;
   671 ;;Main: autosize = 0, tempsize = 0, incstack = 0, save=0
   672 ;;
   673 ;; *************** function _main *****************
   674 ;; Defined at:
   675 ;;		line 49 in file "main.c"
   676 ;; Parameters:    Size  Location     Type
   677 ;;		None
   678 ;; Auto vars:     Size  Location     Type
   679 ;;		None
   680 ;; Return value:  Size  Location     Type
   681 ;;                  1    wreg      void 
   682 ;; Registers used:
   683 ;;		wreg, fsr2l, fsr2h, status,2, status,0, prodl, prodh, cstack
   684 ;; Tracked objects:
   685 ;;		On entry : 0/0
   686 ;;		On exit  : 0/0
   687 ;;		Unchanged: 0/0
   688 ;; Data sizes:     COMRAM   BANK5   BANK6   BANK7   BANK8   BANK9  BANK10  BANK11  BANK12  BANK13  BANK14  BANK15  BANK1
      +6  BANK17  BANK18  BANK19  BANK20  BANK21  BANK22  BANK23  BANK24  BANK25  BANK26  BANK27  BANK28  BANK29  BANK30  BANK3
      +1  BANK32  BANK33  BANK34  BANK35  BANK36  BANK37  BANK38  BANK39  BANK40  BANK41  BANK42  BANK43  BANK44  BANK45  BANK4
      +6  BANK47  BANK48  BANK49  BANK50  BANK51  BANK52  BANK53  BANK54  BANK55
   689 ;;      Params:         0       0       0       0       0       0       0       0       0       0       0       0       
      +0       0       0       0       0       0       0       0       0       0       0       0       0       0       0       
      +0       0       0       0       0       0       0       0       0       0       0       0       0       0       0       
      +0       0       0       0       0       0       0       0       0       0
   690 ;;      Locals:         0       0       0       0       0       0       0       0       0       0       0       0       
      +0       0       0       0       0       0       0       0       0       0       0       0       0       0       0       
      +0       0       0       0       0       0       0       0       0       0       0       0       0       0       0       
      +0       0       0       0       0       0       0       0       0       0
   691 ;;      Temps:          0       0       0       0       0       0       0       0       0       0       0       0       
      +0       0       0       0       0       0       0       0       0       0       0       0       0       0       0       
      +0       0       0       0       0       0       0       0       0       0       0       0       0       0       0       
      +0       0       0       0       0       0       0       0       0       0
   692 ;;      Totals:         0       0       0       0       0       0       0       0       0       0       0       0       
      +0       0       0       0       0       0       0       0       0       0       0       0       0       0       0       
      +0       0       0       0       0       0       0       0       0       0       0       0       0       0       0       
      +0       0       0       0       0       0       0       0       0       0
   693 ;;Total ram usage:        0 bytes
   694 ;; Hardware stack levels required when called: 11
   695 ;; This function calls:
   696 ;;		_SYSTEM_Initialize
   697 ;; This function is called by:
   698 ;;		Startup code after reset
   699 ;; This function uses a non-reentrant model
   700 ;;
   701                           
   702                           	psect	text0
   703  0049CE                     __ptext0:
   704                           	callstack 0
   705  0049CE                     _main:
   706                           	callstack 117
   707  0049CE                     
   708                           ;main.c: 52:     SYSTEM_Initialize();
   709  0049CE  ECAE  F024         	call	_SYSTEM_Initialize	;wreg free
   710  0049D2                     
   711                           ;main.c: 59:     (INTCON0bits.GIE = 1);
   712  0049D2  8ED6               	bsf	214,7,c	;volatile
   713  0049D4  94C0               	bcf	192,2,c	;volatile
   714  0049D6  9AC0               	bcf	192,5,c	;volatile
   715  0049D8                     l614:
   716  0049D8  EFEC  F024         	goto	l614
   717  0049DC  EF0D  F000         	goto	start
   718  0049E0                     __end_of_main:
   719                           	callstack 0
   720                           
   721 ;; *************** function _SYSTEM_Initialize *****************
   722 ;; Defined at:
   723 ;;		line 50 in file "mcc_generated_files/mcc.c"
   724 ;; Parameters:    Size  Location     Type
   725 ;;		None
   726 ;; Auto vars:     Size  Location     Type
   727 ;;		None
   728 ;; Return value:  Size  Location     Type
   729 ;;                  1    wreg      void 
   730 ;; Registers used:
   731 ;;		wreg, fsr2l, fsr2h, status,2, status,0, prodl, prodh, cstack
   732 ;; Tracked objects:
   733 ;;		On entry : 0/0
   734 ;;		On exit  : 0/0
   735 ;;		Unchanged: 0/0
   736 ;; Data sizes:     COMRAM   BANK5   BANK6   BANK7   BANK8   BANK9  BANK10  BANK11  BANK12  BANK13  BANK14  BANK15  BANK1
      +6  BANK17  BANK18  BANK19  BANK20  BANK21  BANK22  BANK23  BANK24  BANK25  BANK26  BANK27  BANK28  BANK29  BANK30  BANK3
      +1  BANK32  BANK33  BANK34  BANK35  BANK36  BANK37  BANK38  BANK39  BANK40  BANK41  BANK42  BANK43  BANK44  BANK45  BANK4
      +6  BANK47  BANK48  BANK49  BANK50  BANK51  BANK52  BANK53  BANK54  BANK55
   737 ;;      Params:         0       0       0       0       0       0       0       0       0       0       0       0       
      +0       0       0       0       0       0       0       0       0       0       0       0       0       0       0       
      +0       0       0       0       0       0       0       0       0       0       0       0       0       0       0       
      +0       0       0       0       0       0       0       0       0       0
   738 ;;      Locals:         0       0       0       0       0       0       0       0       0       0       0       0       
      +0       0       0       0       0       0       0       0       0       0       0       0       0       0       0       
      +0       0       0       0       0       0       0       0       0       0       0       0       0       0       0       
      +0       0       0       0       0       0       0       0       0       0
   739 ;;      Temps:          0       0       0       0       0       0       0       0       0       0       0       0       
      +0       0       0       0       0       0       0       0       0       0       0       0       0       0       0       
      +0       0       0       0       0       0       0       0       0       0       0       0       0       0       0       
      +0       0       0       0       0       0       0       0       0       0
   740 ;;      Totals:         0       0       0       0       0       0       0       0       0       0       0       0       
      +0       0       0       0       0       0       0       0       0       0       0       0       0       0       0       
      +0       0       0       0       0       0       0       0       0       0       0       0       0       0       0       
      +0       0       0       0       0       0       0       0       0       0
   741 ;;Total ram usage:        0 bytes
   742 ;; Hardware stack levels used: 1
   743 ;; Hardware stack levels required when called: 10
   744 ;; This function calls:
   745 ;;		_CAN1_Initialize
   746 ;;		_INTERRUPT_Initialize
   747 ;;		_OSCILLATOR_Initialize
   748 ;;		_PIN_MANAGER_Initialize
   749 ;;		_PMD_Initialize
   750 ;;		_TU16A_Initialize
   751 ;; This function is called by:
   752 ;;		_main
   753 ;; This function uses a non-reentrant model
   754 ;;
   755                           
   756                           	psect	text1
   757  00495C                     __ptext1:
   758                           	callstack 0
   759  00495C                     _SYSTEM_Initialize:
   760                           	callstack 117
   761  00495C                     
   762                           ;mcc_generated_files/mcc.c: 52:     INTERRUPT_Initialize();
   763  00495C  EC3D  F025         	call	_INTERRUPT_Initialize	;wreg free
   764  004960                     
   765                           ;mcc_generated_files/mcc.c: 53:     PMD_Initialize();
   766  004960  EC51  F024         	call	_PMD_Initialize	;wreg free
   767  004964                     
   768                           ;mcc_generated_files/mcc.c: 54:     TU16A_Initialize();
   769  004964  ECA6  F023         	call	_TU16A_Initialize	;wreg free
   770  004968                     
   771                           ;mcc_generated_files/mcc.c: 55:     PIN_MANAGER_Initialize();
   772  004968  ECBE  F022         	call	_PIN_MANAGER_Initialize	;wreg free
   773  00496C                     
   774                           ;mcc_generated_files/mcc.c: 56:     OSCILLATOR_Initialize();
   775  00496C  EC79  F024         	call	_OSCILLATOR_Initialize	;wreg free
   776  004970                     
   777                           ;mcc_generated_files/mcc.c: 57:     CAN1_Initialize();
   778  004970  EC7A  F023         	call	_CAN1_Initialize	;wreg free
   779  004974  0012               	return		;funcret
   780  004976                     __end_of_SYSTEM_Initialize:
   781                           	callstack 0
   782                           
   783 ;; *************** function _TU16A_Initialize *****************
   784 ;; Defined at:
   785 ;;		line 58 in file "mcc_generated_files/tu16a.c"
   786 ;; Parameters:    Size  Location     Type
   787 ;;		None
   788 ;; Auto vars:     Size  Location     Type
   789 ;;		None
   790 ;; Return value:  Size  Location     Type
   791 ;;                  1    wreg      void 
   792 ;; Registers used:
   793 ;;		wreg, status,2, status,0, cstack
   794 ;; Tracked objects:
   795 ;;		On entry : 0/0
   796 ;;		On exit  : 0/0
   797 ;;		Unchanged: 0/0
   798 ;; Data sizes:     COMRAM   BANK5   BANK6   BANK7   BANK8   BANK9  BANK10  BANK11  BANK12  BANK13  BANK14  BANK15  BANK1
      +6  BANK17  BANK18  BANK19  BANK20  BANK21  BANK22  BANK23  BANK24  BANK25  BANK26  BANK27  BANK28  BANK29  BANK30  BANK3
      +1  BANK32  BANK33  BANK34  BANK35  BANK36  BANK37  BANK38  BANK39  BANK40  BANK41  BANK42  BANK43  BANK44  BANK45  BANK4
      +6  BANK47  BANK48  BANK49  BANK50  BANK51  BANK52  BANK53  BANK54  BANK55
   799 ;;      Params:         0       0       0       0       0       0       0       0       0       0       0       0       
      +0       0       0       0       0       0       0       0       0       0       0       0       0       0       0       
      +0       0       0       0       0       0       0       0       0       0       0       0       0       0       0       
      +0       0       0       0       0       0       0       0       0       0
   800 ;;      Locals:         0       0       0       0       0       0       0       0       0       0       0       0       
      +0       0       0       0       0       0       0       0       0       0       0       0       0       0       0       
      +0       0       0       0       0       0       0       0       0       0       0       0       0       0       0       
      +0       0       0       0       0       0       0       0       0       0
   801 ;;      Temps:          0       0       0       0       0       0       0       0       0       0       0       0       
      +0       0       0       0       0       0       0       0       0       0       0       0       0       0       0       
      +0       0       0       0       0       0       0       0       0       0       0       0       0       0       0       
      +0       0       0       0       0       0       0       0       0       0
   802 ;;      Totals:         0       0       0       0       0       0       0       0       0       0       0       0       
      +0       0       0       0       0       0       0       0       0       0       0       0       0       0       0       
      +0       0       0       0       0       0       0       0       0       0       0       0       0       0       0       
      +0       0       0       0       0       0       0       0       0       0
   803 ;;Total ram usage:        0 bytes
   804 ;; Hardware stack levels used: 1
   805 ;; Hardware stack levels required when called: 8
   806 ;; This function calls:
   807 ;;		_TU16A_SetInterruptHandler
   808 ;; This function is called by:
   809 ;;		_SYSTEM_Initialize
   810 ;; This function uses a non-reentrant model
   811 ;;
   812                           
   813                           	psect	text2
   814  00474C                     __ptext2:
   815                           	callstack 0
   816  00474C                     _TU16A_Initialize:
   817                           	callstack 118
   818  00474C                     
   819                           ;mcc_generated_files/tu16a.c: 61:     TU16ACON0bits.ON = 0;
   820  00474C  0103               	movlb	3	; () banked
   821  00474E  9F87               	bcf	135,7,b	;volatile
   822  004750                     
   823                           ; BSR set to: 3
   824                           ;mcc_generated_files/tu16a.c: 63:     TU16ACON1 = 0x00;
   825  004750  0E00               	movlw	0
   826  004752  6F88               	movwf	136,b	;volatile
   827                           
   828                           ;mcc_generated_files/tu16a.c: 67:     TU16AHLT = 0x0C;
   829  004754  0E0C               	movlw	12
   830  004756  6F89               	movwf	137,b	;volatile
   831                           
   832                           ;mcc_generated_files/tu16a.c: 69:     TU16ACLK = 0x04;
   833  004758  0E04               	movlw	4
   834  00475A  6F8F               	movwf	143,b	;volatile
   835                           
   836                           ;mcc_generated_files/tu16a.c: 71:     TU16AERS = 0x00;
   837  00475C  0E00               	movlw	0
   838  00475E  6F90               	movwf	144,b	;volatile
   839                           
   840                           ;mcc_generated_files/tu16a.c: 73:     TU16APS = 0x01;
   841  004760  0E01               	movlw	1
   842  004762  6F8A               	movwf	138,b	;volatile
   843                           
   844                           ;mcc_generated_files/tu16a.c: 75:     TU16APRH = 0x3C;
   845  004764  0E3C               	movlw	60
   846  004766  6F8E               	movwf	142,b	;volatile
   847                           
   848                           ;mcc_generated_files/tu16a.c: 77:     TU16APRL = 0x8C;
   849  004768  0E8C               	movlw	140
   850  00476A  6F8D               	movwf	141,b	;volatile
   851                           
   852                           ;mcc_generated_files/tu16a.c: 79:     TU16ATMRH = 0x00;
   853  00476C  0E00               	movlw	0
   854  00476E  6F8C               	movwf	140,b	;volatile
   855                           
   856                           ;mcc_generated_files/tu16a.c: 81:     TU16ATMRL = 0x00;
   857  004770  0E00               	movlw	0
   858  004772  6F8B               	movwf	139,b	;volatile
   859                           
   860                           ;mcc_generated_files/tu16a.c: 83:     TUCHAIN = 0x00;
   861  004774  0E00               	movlw	0
   862  004776  6FBB               	movwf	187,b	;volatile
   863  004778                     
   864                           ; BSR set to: 3
   865                           ;mcc_generated_files/tu16a.c: 85:     TU16ACON1bits.PRIF = 0;
   866  004778  9588               	bcf	136,2,b	;volatile
   867  00477A                     
   868                           ; BSR set to: 3
   869                           ;mcc_generated_files/tu16a.c: 86:     TU16ACON1bits.ZIF = 0;
   870  00477A  9388               	bcf	136,1,b	;volatile
   871  00477C                     
   872                           ; BSR set to: 3
   873                           ;mcc_generated_files/tu16a.c: 87:     TU16ACON1bits.CIF = 0;
   874  00477C  9188               	bcf	136,0,b	;volatile
   875  00477E                     
   876                           ; BSR set to: 3
   877                           ;mcc_generated_files/tu16a.c: 89:     TU16A_SetInterruptHandler(TU16A__C1_TransmitInterr
      +                          uptHandler);
   878  00477E  0EE0               	movlw	low _TU16A__C1_TransmitInterruptHandler
   879  004780  0105               	movlb	5	; () banked
   880  004782  6F75               	movwf	TU16A_SetInterruptHandler@InterruptHandler& (0+255),b
   881  004784  0E45               	movlw	high _TU16A__C1_TransmitInterruptHandler
   882  004786  6F76               	movwf	(TU16A_SetInterruptHandler@InterruptHandler+1)& (0+255),b
   883  004788  0E00               	movlw	low (_TU16A__C1_TransmitInterruptHandler shr (0+16))
   884  00478A  6F77               	movwf	(TU16A_SetInterruptHandler@InterruptHandler+2)& (0+255),b
   885  00478C  ECF0  F024         	call	_TU16A_SetInterruptHandler	;wreg free
   886  004790                     
   887                           ;mcc_generated_files/tu16a.c: 91:     PIE0bits.TU16AIE = 1;
   888  004790  889E               	bsf	158,4,c	;volatile
   889  004792                     
   890                           ;mcc_generated_files/tu16a.c: 93:     TU16ACON0 = 0x84;
   891  004792  0E84               	movlw	132
   892  004794  0103               	movlb	3	; () banked
   893  004796  6F87               	movwf	135,b	;volatile
   894  004798                     
   895                           ; BSR set to: 3
   896  004798  0012               	return		;funcret
   897  00479A                     __end_of_TU16A_Initialize:
   898                           	callstack 0
   899                           
   900 ;; *************** function _TU16A_SetInterruptHandler *****************
   901 ;; Defined at:
   902 ;;		line 244 in file "mcc_generated_files/tu16a.c"
   903 ;; Parameters:    Size  Location     Type
   904 ;;  InterruptHan    3    0[BANK5 ] PTR FTN()void 
   905 ;;		 -> TU16A__C1_TransmitInterruptHandler(1), 
   906 ;; Auto vars:     Size  Location     Type
   907 ;;		None
   908 ;; Return value:  Size  Location     Type
   909 ;;                  1    wreg      void 
   910 ;; Registers used:
   911 ;;		wreg, status,2, status,0
   912 ;; Tracked objects:
   913 ;;		On entry : 0/0
   914 ;;		On exit  : 0/0
   915 ;;		Unchanged: 0/0
   916 ;; Data sizes:     COMRAM   BANK5   BANK6   BANK7   BANK8   BANK9  BANK10  BANK11  BANK12  BANK13  BANK14  BANK15  BANK1
      +6  BANK17  BANK18  BANK19  BANK20  BANK21  BANK22  BANK23  BANK24  BANK25  BANK26  BANK27  BANK28  BANK29  BANK30  BANK3
      +1  BANK32  BANK33  BANK34  BANK35  BANK36  BANK37  BANK38  BANK39  BANK40  BANK41  BANK42  BANK43  BANK44  BANK45  BANK4
      +6  BANK47  BANK48  BANK49  BANK50  BANK51  BANK52  BANK53  BANK54  BANK55
   917 ;;      Params:         0       3       0       0       0       0       0       0       0       0       0       0       
      +0       0       0       0       0       0       0       0       0       0       0       0       0       0       0       
      +0       0       0       0       0       0       0       0       0       0       0       0       0       0       0       
      +0       0       0       0       0       0       0       0       0       0
   918 ;;      Locals:         0       0       0       0       0       0       0       0       0       0       0       0       
      +0       0       0       0       0       0       0       0       0       0       0       0       0       0       0       
      +0       0       0       0       0       0       0       0       0       0       0       0       0       0       0       
      +0       0       0       0       0       0       0       0       0       0
   919 ;;      Temps:          0       0       0       0       0       0       0       0       0       0       0       0       
      +0       0       0       0       0       0       0       0       0       0       0       0       0       0       0       
      +0       0       0       0       0       0       0       0       0       0       0       0       0       0       0       
      +0       0       0       0       0       0       0       0       0       0
   920 ;;      Totals:         0       3       0       0       0       0       0       0       0       0       0       0       
      +0       0       0       0       0       0       0       0       0       0       0       0       0       0       0       
      +0       0       0       0       0       0       0       0       0       0       0       0       0       0       0       
      +0       0       0       0       0       0       0       0       0       0
   921 ;;Total ram usage:        3 bytes
   922 ;; Hardware stack levels used: 1
   923 ;; Hardware stack levels required when called: 7
   924 ;; This function calls:
   925 ;;		Nothing
   926 ;; This function is called by:
   927 ;;		_TU16A_Initialize
   928 ;; This function uses a non-reentrant model
   929 ;;
   930                           
   931                           	psect	text3
   932  0049E0                     __ptext3:
   933                           	callstack 0
   934  0049E0                     _TU16A_SetInterruptHandler:
   935                           	callstack 118
   936  0049E0                     
   937                           ;mcc_generated_files/tu16a.c: 245:     TU16A_InterruptHandler = InterruptHandler;
   938  0049E0  C575  F558         	movff	TU16A_SetInterruptHandler@InterruptHandler,_TU16A_InterruptHandler
   939  0049E4  C576  F559         	movff	TU16A_SetInterruptHandler@InterruptHandler+1,_TU16A_InterruptHandler+1
   940  0049E8  C577  F55A         	movff	TU16A_SetInterruptHandler@InterruptHandler+2,_TU16A_InterruptHandler+2
   941  0049EC  0012               	return		;funcret
   942  0049EE                     __end_of_TU16A_SetInterruptHandler:
   943                           	callstack 0
   944                           
   945 ;; *************** function _PMD_Initialize *****************
   946 ;; Defined at:
   947 ;;		line 78 in file "mcc_generated_files/mcc.c"
   948 ;; Parameters:    Size  Location     Type
   949 ;;		None
   950 ;; Auto vars:     Size  Location     Type
   951 ;;		None
   952 ;; Return value:  Size  Location     Type
   953 ;;                  1    wreg      void 
   954 ;; Registers used:
   955 ;;		wreg, status,2
   956 ;; Tracked objects:
   957 ;;		On entry : 0/0
   958 ;;		On exit  : 0/0
   959 ;;		Unchanged: 0/0
   960 ;; Data sizes:     COMRAM   BANK5   BANK6   BANK7   BANK8   BANK9  BANK10  BANK11  BANK12  BANK13  BANK14  BANK15  BANK1
      +6  BANK17  BANK18  BANK19  BANK20  BANK21  BANK22  BANK23  BANK24  BANK25  BANK26  BANK27  BANK28  BANK29  BANK30  BANK3
      +1  BANK32  BANK33  BANK34  BANK35  BANK36  BANK37  BANK38  BANK39  BANK40  BANK41  BANK42  BANK43  BANK44  BANK45  BANK4
      +6  BANK47  BANK48  BANK49  BANK50  BANK51  BANK52  BANK53  BANK54  BANK55
   961 ;;      Params:         0       0       0       0       0       0       0       0       0       0       0       0       
      +0       0       0       0       0       0       0       0       0       0       0       0       0       0       0       
      +0       0       0       0       0       0       0       0       0       0       0       0       0       0       0       
      +0       0       0       0       0       0       0       0       0       0
   962 ;;      Locals:         0       0       0       0       0       0       0       0       0       0       0       0       
      +0       0       0       0       0       0       0       0       0       0       0       0       0       0       0       
      +0       0       0       0       0       0       0       0       0       0       0       0       0       0       0       
      +0       0       0       0       0       0       0       0       0       0
   963 ;;      Temps:          0       0       0       0       0       0       0       0       0       0       0       0       
      +0       0       0       0       0       0       0       0       0       0       0       0       0       0       0       
      +0       0       0       0       0       0       0       0       0       0       0       0       0       0       0       
      +0       0       0       0       0       0       0       0       0       0
   964 ;;      Totals:         0       0       0       0       0       0       0       0       0       0       0       0       
      +0       0       0       0       0       0       0       0       0       0       0       0       0       0       0       
      +0       0       0       0       0       0       0       0       0       0       0       0       0       0       0       
      +0       0       0       0       0       0       0       0       0       0
   965 ;;Total ram usage:        0 bytes
   966 ;; Hardware stack levels used: 1
   967 ;; Hardware stack levels required when called: 7
   968 ;; This function calls:
   969 ;;		Nothing
   970 ;; This function is called by:
   971 ;;		_SYSTEM_Initialize
   972 ;; This function uses a non-reentrant model
   973 ;;
   974                           
   975                           	psect	text4
   976  0048A2                     __ptext4:
   977                           	callstack 0
   978  0048A2                     _PMD_Initialize:
   979                           	callstack 119
   980  0048A2                     
   981                           ;mcc_generated_files/mcc.c: 81:     PMD0 = 0x00;
   982  0048A2  0E00               	movlw	0
   983  0048A4  0100               	movlb	0	; () banked
   984  0048A6  6F60               	movwf	96,b	;volatile
   985                           
   986                           ;mcc_generated_files/mcc.c: 83:     PMD1 = 0x00;
   987  0048A8  0E00               	movlw	0
   988  0048AA  6F61               	movwf	97,b	;volatile
   989                           
   990                           ;mcc_generated_files/mcc.c: 85:     PMD2 = 0x00;
   991  0048AC  0E00               	movlw	0
   992  0048AE  6F62               	movwf	98,b	;volatile
   993                           
   994                           ;mcc_generated_files/mcc.c: 87:     PMD3 = 0x00;
   995  0048B0  0E00               	movlw	0
   996  0048B2  6F63               	movwf	99,b	;volatile
   997                           
   998                           ;mcc_generated_files/mcc.c: 89:     PMD4 = 0x00;
   999  0048B4  0E00               	movlw	0
  1000  0048B6  6F64               	movwf	100,b	;volatile
  1001                           
  1002                           ;mcc_generated_files/mcc.c: 91:     PMD5 = 0x00;
  1003  0048B8  0E00               	movlw	0
  1004  0048BA  6F65               	movwf	101,b	;volatile
  1005                           
  1006                           ;mcc_generated_files/mcc.c: 93:     PMD6 = 0x00;
  1007  0048BC  0E00               	movlw	0
  1008  0048BE  6F66               	movwf	102,b	;volatile
  1009                           
  1010                           ;mcc_generated_files/mcc.c: 95:     PMD7 = 0x00;
  1011  0048C0  0E00               	movlw	0
  1012  0048C2  6F67               	movwf	103,b	;volatile
  1013                           
  1014                           ;mcc_generated_files/mcc.c: 97:     PMD8 = 0x00;
  1015  0048C4  0E00               	movlw	0
  1016  0048C6  6F68               	movwf	104,b	;volatile
  1017  0048C8                     
  1018                           ; BSR set to: 0
  1019  0048C8  0012               	return		;funcret
  1020  0048CA                     __end_of_PMD_Initialize:
  1021                           	callstack 0
  1022                           
  1023 ;; *************** function _PIN_MANAGER_Initialize *****************
  1024 ;; Defined at:
  1025 ;;		line 55 in file "mcc_generated_files/pin_manager.c"
  1026 ;; Parameters:    Size  Location     Type
  1027 ;;		None
  1028 ;; Auto vars:     Size  Location     Type
  1029 ;;		None
  1030 ;; Return value:  Size  Location     Type
  1031 ;;                  1    wreg      void 
  1032 ;; Registers used:
  1033 ;;		wreg, status,2
  1034 ;; Tracked objects:
  1035 ;;		On entry : 0/0
  1036 ;;		On exit  : 0/0
  1037 ;;		Unchanged: 0/0
  1038 ;; Data sizes:     COMRAM   BANK5   BANK6   BANK7   BANK8   BANK9  BANK10  BANK11  BANK12  BANK13  BANK14  BANK15  BANK1
      +6  BANK17  BANK18  BANK19  BANK20  BANK21  BANK22  BANK23  BANK24  BANK25  BANK26  BANK27  BANK28  BANK29  BANK30  BANK3
      +1  BANK32  BANK33  BANK34  BANK35  BANK36  BANK37  BANK38  BANK39  BANK40  BANK41  BANK42  BANK43  BANK44  BANK45  BANK4
      +6  BANK47  BANK48  BANK49  BANK50  BANK51  BANK52  BANK53  BANK54  BANK55
  1039 ;;      Params:         0       0       0       0       0       0       0       0       0       0       0       0       
      +0       0       0       0       0       0       0       0       0       0       0       0       0       0       0       
      +0       0       0       0       0       0       0       0       0       0       0       0       0       0       0       
      +0       0       0       0       0       0       0       0       0       0
  1040 ;;      Locals:         0       0       0       0       0       0       0       0       0       0       0       0       
      +0       0       0       0       0       0       0       0       0       0       0       0       0       0       0       
      +0       0       0       0       0       0       0       0       0       0       0       0       0       0       0       
      +0       0       0       0       0       0       0       0       0       0
  1041 ;;      Temps:          0       0       0       0       0       0       0       0       0       0       0       0       
      +0       0       0       0       0       0       0       0       0       0       0       0       0       0       0       
      +0       0       0       0       0       0       0       0       0       0       0       0       0       0       0       
      +0       0       0       0       0       0       0       0       0       0
  1042 ;;      Totals:         0       0       0       0       0       0       0       0       0       0       0       0       
      +0       0       0       0       0       0       0       0       0       0       0       0       0       0       0       
      +0       0       0       0       0       0       0       0       0       0       0       0       0       0       0       
      +0       0       0       0       0       0       0       0       0       0
  1043 ;;Total ram usage:        0 bytes
  1044 ;; Hardware stack levels used: 1
  1045 ;; Hardware stack levels required when called: 7
  1046 ;; This function calls:
  1047 ;;		Nothing
  1048 ;; This function is called by:
  1049 ;;		_SYSTEM_Initialize
  1050 ;; This function uses a non-reentrant model
  1051 ;;
  1052                           
  1053                           	psect	text5
  1054  00457C                     __ptext5:
  1055                           	callstack 0
  1056  00457C                     _PIN_MANAGER_Initialize:
  1057                           	callstack 119
  1058  00457C                     
  1059                           ;mcc_generated_files/pin_manager.c: 60:     LATA = 0x00;
  1060  00457C  0E00               	movlw	0
  1061  00457E  6EBE               	movwf	190,c	;volatile
  1062                           
  1063                           ;mcc_generated_files/pin_manager.c: 61:     LATB = 0x00;
  1064  004580  0E00               	movlw	0
  1065  004582  6EBF               	movwf	191,c	;volatile
  1066                           
  1067                           ;mcc_generated_files/pin_manager.c: 62:     LATC = 0x00;
  1068  004584  0E00               	movlw	0
  1069  004586  6EC0               	movwf	192,c	;volatile
  1070                           
  1071                           ;mcc_generated_files/pin_manager.c: 67:     TRISE = 0x08;
  1072  004588  0E08               	movlw	8
  1073  00458A  6ECA               	movwf	202,c	;volatile
  1074  00458C                     
  1075                           ;mcc_generated_files/pin_manager.c: 68:     TRISA = 0xFF;
  1076  00458C  68C6               	setf	198,c	;volatile
  1077                           
  1078                           ;mcc_generated_files/pin_manager.c: 69:     TRISB = 0xCF;
  1079  00458E  0ECF               	movlw	207
  1080  004590  6EC7               	movwf	199,c	;volatile
  1081                           
  1082                           ;mcc_generated_files/pin_manager.c: 70:     TRISC = 0xCB;
  1083  004592  0ECB               	movlw	203
  1084  004594  6EC8               	movwf	200,c	;volatile
  1085                           
  1086                           ;mcc_generated_files/pin_manager.c: 75:     ANSELC = 0xC3;
  1087  004596  0EC3               	movlw	195
  1088  004598  0104               	movlb	4	; () banked
  1089  00459A  6F10               	movwf	16,b	;volatile
  1090                           
  1091                           ;mcc_generated_files/pin_manager.c: 76:     ANSELB = 0xCF;
  1092  00459C  0ECF               	movlw	207
  1093  00459E  6F08               	movwf	8,b	;volatile
  1094                           
  1095                           ;mcc_generated_files/pin_manager.c: 77:     ANSELA = 0xF6;
  1096  0045A0  0EF6               	movlw	246
  1097  0045A2  6F00               	movwf	0,b	;volatile
  1098                           
  1099                           ;mcc_generated_files/pin_manager.c: 82:     WPUE = 0x00;
  1100  0045A4  0E00               	movlw	0
  1101  0045A6  6F21               	movwf	33,b	;volatile
  1102                           
  1103                           ;mcc_generated_files/pin_manager.c: 83:     WPUB = 0x00;
  1104  0045A8  0E00               	movlw	0
  1105  0045AA  6F09               	movwf	9,b	;volatile
  1106                           
  1107                           ;mcc_generated_files/pin_manager.c: 84:     WPUA = 0x00;
  1108  0045AC  0E00               	movlw	0
  1109  0045AE  6F01               	movwf	1,b	;volatile
  1110                           
  1111                           ;mcc_generated_files/pin_manager.c: 85:     WPUC = 0x00;
  1112  0045B0  0E00               	movlw	0
  1113  0045B2  6F11               	movwf	17,b	;volatile
  1114                           
  1115                           ;mcc_generated_files/pin_manager.c: 90:     ODCONA = 0x00;
  1116  0045B4  0E00               	movlw	0
  1117  0045B6  6F02               	movwf	2,b	;volatile
  1118                           
  1119                           ;mcc_generated_files/pin_manager.c: 91:     ODCONB = 0x30;
  1120  0045B8  0E30               	movlw	48
  1121  0045BA  6F0A               	movwf	10,b	;volatile
  1122                           
  1123                           ;mcc_generated_files/pin_manager.c: 92:     ODCONC = 0x00;
  1124  0045BC  0E00               	movlw	0
  1125  0045BE  6F12               	movwf	18,b	;volatile
  1126  0045C0                     
  1127                           ; BSR set to: 4
  1128                           ;mcc_generated_files/pin_manager.c: 97:     SLRCONA = 0xFF;
  1129  0045C0  6903               	setf	3,b	;volatile
  1130  0045C2                     
  1131                           ; BSR set to: 4
  1132                           ;mcc_generated_files/pin_manager.c: 98:     SLRCONB = 0xFF;
  1133  0045C2  690B               	setf	11,b	;volatile
  1134  0045C4                     
  1135                           ; BSR set to: 4
  1136                           ;mcc_generated_files/pin_manager.c: 99:     SLRCONC = 0xFF;
  1137  0045C4  6913               	setf	19,b	;volatile
  1138  0045C6                     
  1139                           ; BSR set to: 4
  1140                           ;mcc_generated_files/pin_manager.c: 104:     INLVLA = 0xFF;
  1141  0045C6  6904               	setf	4,b	;volatile
  1142  0045C8                     
  1143                           ; BSR set to: 4
  1144                           ;mcc_generated_files/pin_manager.c: 105:     INLVLB = 0xFF;
  1145  0045C8  690C               	setf	12,b	;volatile
  1146  0045CA                     
  1147                           ; BSR set to: 4
  1148                           ;mcc_generated_files/pin_manager.c: 106:     INLVLC = 0xFF;
  1149  0045CA  6914               	setf	20,b	;volatile
  1150                           
  1151                           ;mcc_generated_files/pin_manager.c: 107:     INLVLE = 0x08;
  1152  0045CC  0E08               	movlw	8
  1153  0045CE  6F24               	movwf	36,b	;volatile
  1154                           
  1155                           ;mcc_generated_files/pin_manager.c: 116:     TUIN0PPS = 0x00;
  1156  0045D0  0E00               	movlw	0
  1157  0045D2  0102               	movlb	2	; () banked
  1158  0045D4  6F4B               	movwf	75,b	;volatile
  1159                           
  1160                           ;mcc_generated_files/pin_manager.c: 117:     RC4PPS = 0x46;
  1161  0045D6  0E46               	movlw	70
  1162  0045D8  6F15               	movwf	21,b	;volatile
  1163                           
  1164                           ;mcc_generated_files/pin_manager.c: 118:     CANRXPPS = 0x13;
  1165  0045DA  0E13               	movlw	19
  1166  0045DC  6F3D               	movwf	61,b	;volatile
  1167  0045DE                     
  1168                           ; BSR set to: 2
  1169  0045DE  0012               	return		;funcret
  1170  0045E0                     __end_of_PIN_MANAGER_Initialize:
  1171                           	callstack 0
  1172                           
  1173 ;; *************** function _OSCILLATOR_Initialize *****************
  1174 ;; Defined at:
  1175 ;;		line 60 in file "mcc_generated_files/mcc.c"
  1176 ;; Parameters:    Size  Location     Type
  1177 ;;		None
  1178 ;; Auto vars:     Size  Location     Type
  1179 ;;		None
  1180 ;; Return value:  Size  Location     Type
  1181 ;;                  1    wreg      void 
  1182 ;; Registers used:
  1183 ;;		wreg, status,2
  1184 ;; Tracked objects:
  1185 ;;		On entry : 0/0
  1186 ;;		On exit  : 0/0
  1187 ;;		Unchanged: 0/0
  1188 ;; Data sizes:     COMRAM   BANK5   BANK6   BANK7   BANK8   BANK9  BANK10  BANK11  BANK12  BANK13  BANK14  BANK15  BANK1
      +6  BANK17  BANK18  BANK19  BANK20  BANK21  BANK22  BANK23  BANK24  BANK25  BANK26  BANK27  BANK28  BANK29  BANK30  BANK3
      +1  BANK32  BANK33  BANK34  BANK35  BANK36  BANK37  BANK38  BANK39  BANK40  BANK41  BANK42  BANK43  BANK44  BANK45  BANK4
      +6  BANK47  BANK48  BANK49  BANK50  BANK51  BANK52  BANK53  BANK54  BANK55
  1189 ;;      Params:         0       0       0       0       0       0       0       0       0       0       0       0       
      +0       0       0       0       0       0       0       0       0       0       0       0       0       0       0       
      +0       0       0       0       0       0       0       0       0       0       0       0       0       0       0       
      +0       0       0       0       0       0       0       0       0       0
  1190 ;;      Locals:         0       0       0       0       0       0       0       0       0       0       0       0       
      +0       0       0       0       0       0       0       0       0       0       0       0       0       0       0       
      +0       0       0       0       0       0       0       0       0       0       0       0       0       0       0       
      +0       0       0       0       0       0       0       0       0       0
  1191 ;;      Temps:          0       0       0       0       0       0       0       0       0       0       0       0       
      +0       0       0       0       0       0       0       0       0       0       0       0       0       0       0       
      +0       0       0       0       0       0       0       0       0       0       0       0       0       0       0       
      +0       0       0       0       0       0       0       0       0       0
  1192 ;;      Totals:         0       0       0       0       0       0       0       0       0       0       0       0       
      +0       0       0       0       0       0       0       0       0       0       0       0       0       0       0       
      +0       0       0       0       0       0       0       0       0       0       0       0       0       0       0       
      +0       0       0       0       0       0       0       0       0       0
  1193 ;;Total ram usage:        0 bytes
  1194 ;; Hardware stack levels used: 1
  1195 ;; Hardware stack levels required when called: 7
  1196 ;; This function calls:
  1197 ;;		Nothing
  1198 ;; This function is called by:
  1199 ;;		_SYSTEM_Initialize
  1200 ;; This function uses a non-reentrant model
  1201 ;;
  1202                           
  1203                           	psect	text6
  1204  0048F2                     __ptext6:
  1205                           	callstack 0
  1206  0048F2                     _OSCILLATOR_Initialize:
  1207                           	callstack 119
  1208  0048F2                     
  1209                           ;mcc_generated_files/mcc.c: 63:     OSCCON1 = 0x20;
  1210  0048F2  0E20               	movlw	32
  1211  0048F4  0100               	movlb	0	; () banked
  1212  0048F6  6FAD               	movwf	173,b	;volatile
  1213                           
  1214                           ;mcc_generated_files/mcc.c: 65:     OSCCON3 = 0x00;
  1215  0048F8  0E00               	movlw	0
  1216  0048FA  6FAF               	movwf	175,b	;volatile
  1217                           
  1218                           ;mcc_generated_files/mcc.c: 67:     OSCEN = 0x00;
  1219  0048FC  0E00               	movlw	0
  1220  0048FE  6FB3               	movwf	179,b	;volatile
  1221                           
  1222                           ;mcc_generated_files/mcc.c: 69:     OSCFRQ = 0x08;
  1223  004900  0E08               	movlw	8
  1224  004902  6FB1               	movwf	177,b	;volatile
  1225                           
  1226                           ;mcc_generated_files/mcc.c: 71:     OSCTUNE = 0x00;
  1227  004904  0E00               	movlw	0
  1228  004906  6FB0               	movwf	176,b	;volatile
  1229  004908                     l138:
  1230                           
  1231                           ; BSR set to: 0
  1232                           ;mcc_generated_files/mcc.c: 73:     while(PLLR == 0)
  1233  004908  A1B2               	btfss	178,0,b	;volatile
  1234  00490A  EF89  F024         	goto	u1571
  1235  00490E  EF8B  F024         	goto	u1570
  1236  004912                     u1571:
  1237  004912  EF84  F024         	goto	l138
  1238  004916                     u1570:
  1239  004916                     
  1240                           ; BSR set to: 0
  1241  004916  0012               	return		;funcret
  1242  004918                     __end_of_OSCILLATOR_Initialize:
  1243                           	callstack 0
  1244                           
  1245 ;; *************** function _INTERRUPT_Initialize *****************
  1246 ;; Defined at:
  1247 ;;		line 52 in file "mcc_generated_files/interrupt_manager.c"
  1248 ;; Parameters:    Size  Location     Type
  1249 ;;		None
  1250 ;; Auto vars:     Size  Location     Type
  1251 ;;		None
  1252 ;; Return value:  Size  Location     Type
  1253 ;;                  1    wreg      void 
  1254 ;; Registers used:
  1255 ;;		None
  1256 ;; Tracked objects:
  1257 ;;		On entry : 0/0
  1258 ;;		On exit  : 0/0
  1259 ;;		Unchanged: 0/0
  1260 ;; Data sizes:     COMRAM   BANK5   BANK6   BANK7   BANK8   BANK9  BANK10  BANK11  BANK12  BANK13  BANK14  BANK15  BANK1
      +6  BANK17  BANK18  BANK19  BANK20  BANK21  BANK22  BANK23  BANK24  BANK25  BANK26  BANK27  BANK28  BANK29  BANK30  BANK3
      +1  BANK32  BANK33  BANK34  BANK35  BANK36  BANK37  BANK38  BANK39  BANK40  BANK41  BANK42  BANK43  BANK44  BANK45  BANK4
      +6  BANK47  BANK48  BANK49  BANK50  BANK51  BANK52  BANK53  BANK54  BANK55
  1261 ;;      Params:         0       0       0       0       0       0       0       0       0       0       0       0       
      +0       0       0       0       0       0       0       0       0       0       0       0       0       0       0       
      +0       0       0       0       0       0       0       0       0       0       0       0       0       0       0       
      +0       0       0       0       0       0       0       0       0       0
  1262 ;;      Locals:         0       0       0       0       0       0       0       0       0       0       0       0       
      +0       0       0       0       0       0       0       0       0       0       0       0       0       0       0       
      +0       0       0       0       0       0       0       0       0       0       0       0       0       0       0       
      +0       0       0       0       0       0       0       0       0       0
  1263 ;;      Temps:          0       0       0       0       0       0       0       0       0       0       0       0       
      +0       0       0       0       0       0       0       0       0       0       0       0       0       0       0       
      +0       0       0       0       0       0       0       0       0       0       0       0       0       0       0       
      +0       0       0       0       0       0       0       0       0       0
  1264 ;;      Totals:         0       0       0       0       0       0       0       0       0       0       0       0       
      +0       0       0       0       0       0       0       0       0       0       0       0       0       0       0       
      +0       0       0       0       0       0       0       0       0       0       0       0       0       0       0       
      +0       0       0       0       0       0       0       0       0       0
  1265 ;;Total ram usage:        0 bytes
  1266 ;; Hardware stack levels used: 1
  1267 ;; Hardware stack levels required when called: 7
  1268 ;; This function calls:
  1269 ;;		Nothing
  1270 ;; This function is called by:
  1271 ;;		_SYSTEM_Initialize
  1272 ;; This function uses a non-reentrant model
  1273 ;;
  1274                           
  1275                           	psect	text7
  1276  004A7A                     __ptext7:
  1277                           	callstack 0
  1278  004A7A                     _INTERRUPT_Initialize:
  1279                           	callstack 119
  1280  004A7A                     
  1281                           ;mcc_generated_files/interrupt_manager.c: 55:     INTCON0bits.IPEN = 0;
  1282  004A7A  9AD6               	bcf	214,5,c	;volatile
  1283  004A7C  0012               	return		;funcret
  1284  004A7E                     __end_of_INTERRUPT_Initialize:
  1285                           	callstack 0
  1286                           
  1287 ;; *************** function _CAN1_Initialize *****************
  1288 ;; Defined at:
  1289 ;;		line 257 in file "mcc_generated_files/can1.c"
  1290 ;; Parameters:    Size  Location     Type
  1291 ;;		None
  1292 ;; Auto vars:     Size  Location     Type
  1293 ;;		None
  1294 ;; Return value:  Size  Location     Type
  1295 ;;                  1    wreg      void 
  1296 ;; Registers used:
  1297 ;;		wreg, fsr2l, fsr2h, status,2, status,0, prodl, prodh, cstack
  1298 ;; Tracked objects:
  1299 ;;		On entry : 0/0
  1300 ;;		On exit  : 0/0
  1301 ;;		Unchanged: 0/0
  1302 ;; Data sizes:     COMRAM   BANK5   BANK6   BANK7   BANK8   BANK9  BANK10  BANK11  BANK12  BANK13  BANK14  BANK15  BANK1
      +6  BANK17  BANK18  BANK19  BANK20  BANK21  BANK22  BANK23  BANK24  BANK25  BANK26  BANK27  BANK28  BANK29  BANK30  BANK3
      +1  BANK32  BANK33  BANK34  BANK35  BANK36  BANK37  BANK38  BANK39  BANK40  BANK41  BANK42  BANK43  BANK44  BANK45  BANK4
      +6  BANK47  BANK48  BANK49  BANK50  BANK51  BANK52  BANK53  BANK54  BANK55
  1303 ;;      Params:         0       0       0       0       0       0       0       0       0       0       0       0       
      +0       0       0       0       0       0       0       0       0       0       0       0       0       0       0       
      +0       0       0       0       0       0       0       0       0       0       0       0       0       0       0       
      +0       0       0       0       0       0       0       0       0       0
  1304 ;;      Locals:         0       0       0       0       0       0       0       0       0       0       0       0       
      +0       0       0       0       0       0       0       0       0       0       0       0       0       0       0       
      +0       0       0       0       0       0       0       0       0       0       0       0       0       0       0       
      +0       0       0       0       0       0       0       0       0       0
  1305 ;;      Temps:          0       0       0       0       0       0       0       0       0       0       0       0       
      +0       0       0       0       0       0       0       0       0       0       0       0       0       0       0       
      +0       0       0       0       0       0       0       0       0       0       0       0       0       0       0       
      +0       0       0       0       0       0       0       0       0       0
  1306 ;;      Totals:         0       0       0       0       0       0       0       0       0       0       0       0       
      +0       0       0       0       0       0       0       0       0       0       0       0       0       0       0       
      +0       0       0       0       0       0       0       0       0       0       0       0       0       0       0       
      +0       0       0       0       0       0       0       0       0       0
  1307 ;;Total ram usage:        0 bytes
  1308 ;; Hardware stack levels used: 1
  1309 ;; Hardware stack levels required when called: 9
  1310 ;; This function calls:
  1311 ;;		_CAN1_BitRateConfiguration
  1312 ;;		_CAN1_ErrorNotificationInterruptEnable
  1313 ;;		_CAN1_OperationModeSet
  1314 ;;		_CAN1_RX_FIFO_Configuration
  1315 ;;		_CAN1_RX_FIFO_FilterMaskConfiguration
  1316 ;;		_CAN1_RX_FIFO_ResetInfo
  1317 ;;		_CAN1_TX_FIFO_Configuration
  1318 ;; This function is called by:
  1319 ;;		_SYSTEM_Initialize
  1320 ;; This function uses a non-reentrant model
  1321 ;;
  1322                           
  1323                           	psect	text8
  1324  0046F4                     __ptext8:
  1325                           	callstack 0
  1326  0046F4                     _CAN1_Initialize:
  1327                           	callstack 117
  1328  0046F4                     
  1329                           ;mcc_generated_files/can1.c: 260:     C1CONHbits.ON = 1;
  1330  0046F4  0101               	movlb	1	; () banked
  1331  0046F6  8F01               	bsf	1,7,b	;volatile
  1332  0046F8                     
  1333                           ; BSR set to: 1
  1334                           ;mcc_generated_files/can1.c: 262:     if (CAN_OP_MODE_REQUEST_SUCCESS == CAN1_OperationM
      +                          odeSet(CAN_CONFIGURATION_MODE))
  1335  0046F8  0E04               	movlw	4
  1336  0046FA  ECA9  F021         	call	_CAN1_OperationModeSet
  1337  0046FE  0900               	iorlw	0
  1338  004700  A4D8               	btfss	status,2,c
  1339  004702  EF85  F023         	goto	u1581
  1340  004706  EF87  F023         	goto	u1580
  1341  00470A                     u1581:
  1342  00470A  EFA5  F023         	goto	l326
  1343  00470E                     u1580:
  1344  00470E                     
  1345                           ;mcc_generated_files/can1.c: 263:     {;mcc_generated_files/can1.c: 265:         C1FIFOB
      +                          A = 0x3800;
  1346  00470E  0E00               	movlw	0
  1347  004710  0101               	movlb	1	; () banked
  1348  004712  6F4C               	movwf	76,b	;volatile
  1349  004714  0E38               	movlw	56
  1350  004716  6F4D               	movwf	77,b	;volatile
  1351  004718  0E00               	movlw	0
  1352  00471A  6F4E               	movwf	78,b	;volatile
  1353  00471C  0E00               	movlw	0
  1354  00471E  6F4F               	movwf	79,b	;volatile
  1355                           
  1356                           ;mcc_generated_files/can1.c: 268:         C1CONL = 0x60;
  1357  004720  0E60               	movlw	96
  1358  004722  6F00               	movwf	0,b	;volatile
  1359                           
  1360                           ;mcc_generated_files/can1.c: 271:         C1CONH = 0x97;
  1361  004724  0E97               	movlw	151
  1362  004726  6F01               	movwf	1,b	;volatile
  1363                           
  1364                           ;mcc_generated_files/can1.c: 274:         C1CONU = 0x10;
  1365  004728  0E10               	movlw	16
  1366  00472A  6F02               	movwf	2,b	;volatile
  1367  00472C                     
  1368                           ; BSR set to: 1
  1369                           ;mcc_generated_files/can1.c: 276:         CAN1_BitRateConfiguration();
  1370  00472C  ECDD  F024         	call	_CAN1_BitRateConfiguration	;wreg free
  1371  004730                     
  1372                           ;mcc_generated_files/can1.c: 277:         CAN1_TX_FIFO_Configuration();
  1373  004730  ECD3  F024         	call	_CAN1_TX_FIFO_Configuration	;wreg free
  1374  004734                     
  1375                           ;mcc_generated_files/can1.c: 278:         CAN1_RX_FIFO_Configuration();
  1376  004734  EC24  F024         	call	_CAN1_RX_FIFO_Configuration	;wreg free
  1377  004738                     
  1378                           ;mcc_generated_files/can1.c: 279:         CAN1_RX_FIFO_FilterMaskConfiguration();
  1379  004738  EC8C  F024         	call	_CAN1_RX_FIFO_FilterMaskConfiguration	;wreg free
  1380  00473C                     
  1381                           ;mcc_generated_files/can1.c: 280:         CAN1_RX_FIFO_ResetInfo();
  1382  00473C  EC0D  F024         	call	_CAN1_RX_FIFO_ResetInfo	;wreg free
  1383  004740                     
  1384                           ;mcc_generated_files/can1.c: 281:         CAN1_ErrorNotificationInterruptEnable();
  1385  004740  ECF5  F021         	call	_CAN1_ErrorNotificationInterruptEnable	;wreg free
  1386  004744                     
  1387                           ;mcc_generated_files/can1.c: 282:         CAN1_OperationModeSet(CAN_NORMAL_2_0_MODE);
  1388  004744  0E06               	movlw	6
  1389  004746  ECA9  F021         	call	_CAN1_OperationModeSet
  1390  00474A                     l326:
  1391  00474A  0012               	return		;funcret
  1392  00474C                     __end_of_CAN1_Initialize:
  1393                           	callstack 0
  1394                           
  1395 ;; *************** function _CAN1_TX_FIFO_Configuration *****************
  1396 ;; Defined at:
  1397 ;;		line 199 in file "mcc_generated_files/can1.c"
  1398 ;; Parameters:    Size  Location     Type
  1399 ;;		None
  1400 ;; Auto vars:     Size  Location     Type
  1401 ;;		None
  1402 ;; Return value:  Size  Location     Type
  1403 ;;                  1    wreg      void 
  1404 ;; Registers used:
  1405 ;;		wreg, status,2
  1406 ;; Tracked objects:
  1407 ;;		On entry : 0/0
  1408 ;;		On exit  : 0/0
  1409 ;;		Unchanged: 0/0
  1410 ;; Data sizes:     COMRAM   BANK5   BANK6   BANK7   BANK8   BANK9  BANK10  BANK11  BANK12  BANK13  BANK14  BANK15  BANK1
      +6  BANK17  BANK18  BANK19  BANK20  BANK21  BANK22  BANK23  BANK24  BANK25  BANK26  BANK27  BANK28  BANK29  BANK30  BANK3
      +1  BANK32  BANK33  BANK34  BANK35  BANK36  BANK37  BANK38  BANK39  BANK40  BANK41  BANK42  BANK43  BANK44  BANK45  BANK4
      +6  BANK47  BANK48  BANK49  BANK50  BANK51  BANK52  BANK53  BANK54  BANK55
  1411 ;;      Params:         0       0       0       0       0       0       0       0       0       0       0       0       
      +0       0       0       0       0       0       0       0       0       0       0       0       0       0       0       
      +0       0       0       0       0       0       0       0       0       0       0       0       0       0       0       
      +0       0       0       0       0       0       0       0       0       0
  1412 ;;      Locals:         0       0       0       0       0       0       0       0       0       0       0       0       
      +0       0       0       0       0       0       0       0       0       0       0       0       0       0       0       
      +0       0       0       0       0       0       0       0       0       0       0       0       0       0       0       
      +0       0       0       0       0       0       0       0       0       0
  1413 ;;      Temps:          0       0       0       0       0       0       0       0       0       0       0       0       
      +0       0       0       0       0       0       0       0       0       0       0       0       0       0       0       
      +0       0       0       0       0       0       0       0       0       0       0       0       0       0       0       
      +0       0       0       0       0       0       0       0       0       0
  1414 ;;      Totals:         0       0       0       0       0       0       0       0       0       0       0       0       
      +0       0       0       0       0       0       0       0       0       0       0       0       0       0       0       
      +0       0       0       0       0       0       0       0       0       0       0       0       0       0       0       
      +0       0       0       0       0       0       0       0       0       0
  1415 ;;Total ram usage:        0 bytes
  1416 ;; Hardware stack levels used: 1
  1417 ;; Hardware stack levels required when called: 7
  1418 ;; This function calls:
  1419 ;;		Nothing
  1420 ;; This function is called by:
  1421 ;;		_CAN1_Initialize
  1422 ;; This function uses a non-reentrant model
  1423 ;;
  1424                           
  1425                           	psect	text9
  1426  0049A6                     __ptext9:
  1427                           	callstack 0
  1428  0049A6                     _CAN1_TX_FIFO_Configuration:
  1429                           	callstack 118
  1430  0049A6                     
  1431                           ;mcc_generated_files/can1.c: 202:     C1TXQCONL = 0x10;
  1432  0049A6  0E10               	movlw	16
  1433  0049A8  0101               	movlb	1	; () banked
  1434  0049AA  6F50               	movwf	80,b	;volatile
  1435                           
  1436                           ;mcc_generated_files/can1.c: 205:     C1TXQCONH = 0x04;
  1437  0049AC  0E04               	movlw	4
  1438  0049AE  6F51               	movwf	81,b	;volatile
  1439                           
  1440                           ;mcc_generated_files/can1.c: 208:     C1TXQCONU = 0x60;
  1441  0049B0  0E60               	movlw	96
  1442  0049B2  6F52               	movwf	82,b	;volatile
  1443                           
  1444                           ;mcc_generated_files/can1.c: 211:     C1TXQCONT = 0x05;
  1445  0049B4  0E05               	movlw	5
  1446  0049B6  6F53               	movwf	83,b	;volatile
  1447  0049B8                     
  1448                           ; BSR set to: 1
  1449  0049B8  0012               	return		;funcret
  1450  0049BA                     __end_of_CAN1_TX_FIFO_Configuration:
  1451                           	callstack 0
  1452                           
  1453 ;; *************** function _CAN1_RX_FIFO_ResetInfo *****************
  1454 ;; Defined at:
  1455 ;;		line 151 in file "mcc_generated_files/can1.c"
  1456 ;; Parameters:    Size  Location     Type
  1457 ;;		None
  1458 ;; Auto vars:     Size  Location     Type
  1459 ;;  index           1    0[BANK5 ] unsigned char 
  1460 ;; Return value:  Size  Location     Type
  1461 ;;                  1    wreg      void 
  1462 ;; Registers used:
  1463 ;;		wreg, fsr2l, fsr2h, status,2, status,0, prodl, prodh
  1464 ;; Tracked objects:
  1465 ;;		On entry : 0/0
  1466 ;;		On exit  : 0/0
  1467 ;;		Unchanged: 0/0
  1468 ;; Data sizes:     COMRAM   BANK5   BANK6   BANK7   BANK8   BANK9  BANK10  BANK11  BANK12  BANK13  BANK14  BANK15  BANK1
      +6  BANK17  BANK18  BANK19  BANK20  BANK21  BANK22  BANK23  BANK24  BANK25  BANK26  BANK27  BANK28  BANK29  BANK30  BANK3
      +1  BANK32  BANK33  BANK34  BANK35  BANK36  BANK37  BANK38  BANK39  BANK40  BANK41  BANK42  BANK43  BANK44  BANK45  BANK4
      +6  BANK47  BANK48  BANK49  BANK50  BANK51  BANK52  BANK53  BANK54  BANK55
  1469 ;;      Params:         0       0       0       0       0       0       0       0       0       0       0       0       
      +0       0       0       0       0       0       0       0       0       0       0       0       0       0       0       
      +0       0       0       0       0       0       0       0       0       0       0       0       0       0       0       
      +0       0       0       0       0       0       0       0       0       0
  1470 ;;      Locals:         0       1       0       0       0       0       0       0       0       0       0       0       
      +0       0       0       0       0       0       0       0       0       0       0       0       0       0       0       
      +0       0       0       0       0       0       0       0       0       0       0       0       0       0       0       
      +0       0       0       0       0       0       0       0       0       0
  1471 ;;      Temps:          0       0       0       0       0       0       0       0       0       0       0       0       
      +0       0       0       0       0       0       0       0       0       0       0       0       0       0       0       
      +0       0       0       0       0       0       0       0       0       0       0       0       0       0       0       
      +0       0       0       0       0       0       0       0       0       0
  1472 ;;      Totals:         0       1       0       0       0       0       0       0       0       0       0       0       
      +0       0       0       0       0       0       0       0       0       0       0       0       0       0       0       
      +0       0       0       0       0       0       0       0       0       0       0       0       0       0       0       
      +0       0       0       0       0       0       0       0       0       0
  1473 ;;Total ram usage:        1 bytes
  1474 ;; Hardware stack levels used: 1
  1475 ;; Hardware stack levels required when called: 7
  1476 ;; This function calls:
  1477 ;;		Nothing
  1478 ;; This function is called by:
  1479 ;;		_CAN1_Initialize
  1480 ;; This function uses a non-reentrant model
  1481 ;;
  1482                           
  1483                           	psect	text10
  1484  00481A                     __ptext10:
  1485                           	callstack 0
  1486  00481A                     _CAN1_RX_FIFO_ResetInfo:
  1487                           	callstack 118
  1488  00481A                     
  1489                           ;mcc_generated_files/can1.c: 153:     uint8_t index;;mcc_generated_files/can1.c: 155:   
      +                            for (index = 0; index < (1U); index++)
  1490  00481A  0E00               	movlw	0
  1491  00481C  0105               	movlb	5	; () banked
  1492  00481E  6F75               	movwf	CAN1_RX_FIFO_ResetInfo@index& (0+255),b
  1493  004820                     l2251:
  1494                           
  1495                           ; BSR set to: 5
  1496                           ;mcc_generated_files/can1.c: 156:     {;mcc_generated_files/can1.c: 157:         rxFifos
      +                          [index].fifoHead = 0;
  1497  004820  5175               	movf	CAN1_RX_FIFO_ResetInfo@index& (0+255),w,b
  1498  004822  0D02               	mullw	2
  1499  004824  0E79               	movlw	low (_rxFifos+1)
  1500  004826  24F3               	addwf	243,w,c
  1501  004828  6ED9               	movwf	fsr2l,c
  1502  00482A  0E05               	movlw	high (_rxFifos+1)
  1503  00482C  20F4               	addwfc	prodh,w,c
  1504  00482E  6EDA               	movwf	fsr2h,c
  1505  004830  0E00               	movlw	0
  1506  004832  6EDF               	movwf	indf2,c
  1507  004834                     
  1508                           ; BSR set to: 5
  1509                           ;mcc_generated_files/can1.c: 158:     }
  1510  004834  2B75               	incf	CAN1_RX_FIFO_ResetInfo@index& (0+255),f,b
  1511  004836                     
  1512                           ; BSR set to: 5
  1513  004836  5175               	movf	CAN1_RX_FIFO_ResetInfo@index& (0+255),w,b
  1514  004838  B4D8               	btfsc	status,2,c
  1515  00483A  EF21  F024         	goto	u1401
  1516  00483E  EF23  F024         	goto	u1400
  1517  004842                     u1401:
  1518  004842  EF10  F024         	goto	l2251
  1519  004846                     u1400:
  1520  004846                     
  1521                           ; BSR set to: 5
  1522  004846  0012               	return		;funcret
  1523  004848                     __end_of_CAN1_RX_FIFO_ResetInfo:
  1524                           	callstack 0
  1525                           
  1526 ;; *************** function _CAN1_RX_FIFO_FilterMaskConfiguration *****************
  1527 ;; Defined at:
  1528 ;;		line 184 in file "mcc_generated_files/can1.c"
  1529 ;; Parameters:    Size  Location     Type
  1530 ;;		None
  1531 ;; Auto vars:     Size  Location     Type
  1532 ;;		None
  1533 ;; Return value:  Size  Location     Type
  1534 ;;                  1    wreg      void 
  1535 ;; Registers used:
  1536 ;;		wreg, status,2
  1537 ;; Tracked objects:
  1538 ;;		On entry : 0/0
  1539 ;;		On exit  : 0/0
  1540 ;;		Unchanged: 0/0
  1541 ;; Data sizes:     COMRAM   BANK5   BANK6   BANK7   BANK8   BANK9  BANK10  BANK11  BANK12  BANK13  BANK14  BANK15  BANK1
      +6  BANK17  BANK18  BANK19  BANK20  BANK21  BANK22  BANK23  BANK24  BANK25  BANK26  BANK27  BANK28  BANK29  BANK30  BANK3
      +1  BANK32  BANK33  BANK34  BANK35  BANK36  BANK37  BANK38  BANK39  BANK40  BANK41  BANK42  BANK43  BANK44  BANK45  BANK4
      +6  BANK47  BANK48  BANK49  BANK50  BANK51  BANK52  BANK53  BANK54  BANK55
  1542 ;;      Params:         0       0       0       0       0       0       0       0       0       0       0       0       
      +0       0       0       0       0       0       0       0       0       0       0       0       0       0       0       
      +0       0       0       0       0       0       0       0       0       0       0       0       0       0       0       
      +0       0       0       0       0       0       0       0       0       0
  1543 ;;      Locals:         0       0       0       0       0       0       0       0       0       0       0       0       
      +0       0       0       0       0       0       0       0       0       0       0       0       0       0       0       
      +0       0       0       0       0       0       0       0       0       0       0       0       0       0       0       
      +0       0       0       0       0       0       0       0       0       0
  1544 ;;      Temps:          0       0       0       0       0       0       0       0       0       0       0       0       
      +0       0       0       0       0       0       0       0       0       0       0       0       0       0       0       
      +0       0       0       0       0       0       0       0       0       0       0       0       0       0       0       
      +0       0       0       0       0       0       0       0       0       0
  1545 ;;      Totals:         0       0       0       0       0       0       0       0       0       0       0       0       
      +0       0       0       0       0       0       0       0       0       0       0       0       0       0       0       
      +0       0       0       0       0       0       0       0       0       0       0       0       0       0       0       
      +0       0       0       0       0       0       0       0       0       0
  1546 ;;Total ram usage:        0 bytes
  1547 ;; Hardware stack levels used: 1
  1548 ;; Hardware stack levels required when called: 7
  1549 ;; This function calls:
  1550 ;;		Nothing
  1551 ;; This function is called by:
  1552 ;;		_CAN1_Initialize
  1553 ;; This function uses a non-reentrant model
  1554 ;;
  1555                           
  1556                           	psect	text11
  1557  004918                     __ptext11:
  1558                           	callstack 0
  1559  004918                     _CAN1_RX_FIFO_FilterMaskConfiguration:
  1560                           	callstack 118
  1561  004918                     
  1562                           ;mcc_generated_files/can1.c: 187:     C1FLTOBJ0L = 0xDF;
  1563  004918  0EDF               	movlw	223
  1564  00491A  0101               	movlb	1	; () banked
  1565  00491C  6F8C               	movwf	140,b	;volatile
  1566                           
  1567                           ;mcc_generated_files/can1.c: 188:     C1FLTOBJ0H = 0x07;
  1568  00491E  0E07               	movlw	7
  1569  004920  6F8D               	movwf	141,b	;volatile
  1570                           
  1571                           ;mcc_generated_files/can1.c: 189:     C1FLTOBJ0U = 0x00;
  1572  004922  0E00               	movlw	0
  1573  004924  6F8E               	movwf	142,b	;volatile
  1574                           
  1575                           ;mcc_generated_files/can1.c: 190:     C1FLTOBJ0T = 0x00;
  1576  004926  0E00               	movlw	0
  1577  004928  6F8F               	movwf	143,b	;volatile
  1578  00492A                     
  1579                           ; BSR set to: 1
  1580                           ;mcc_generated_files/can1.c: 191:     C1MASK0L = 0xFF;
  1581  00492A  6990               	setf	144,b	;volatile
  1582                           
  1583                           ;mcc_generated_files/can1.c: 192:     C1MASK0H = 0x07;
  1584  00492C  0E07               	movlw	7
  1585  00492E  6F91               	movwf	145,b	;volatile
  1586                           
  1587                           ;mcc_generated_files/can1.c: 193:     C1MASK0U = 0x00;
  1588  004930  0E00               	movlw	0
  1589  004932  6F92               	movwf	146,b	;volatile
  1590                           
  1591                           ;mcc_generated_files/can1.c: 194:     C1MASK0T = 0x40;
  1592  004934  0E40               	movlw	64
  1593  004936  6F93               	movwf	147,b	;volatile
  1594                           
  1595                           ;mcc_generated_files/can1.c: 195:     C1FLTCON0L = 0x81;
  1596  004938  0E81               	movlw	129
  1597  00493A  6F80               	movwf	128,b	;volatile
  1598  00493C                     
  1599                           ; BSR set to: 1
  1600  00493C  0012               	return		;funcret
  1601  00493E                     __end_of_CAN1_RX_FIFO_FilterMaskConfiguration:
  1602                           	callstack 0
  1603                           
  1604 ;; *************** function _CAN1_RX_FIFO_Configuration *****************
  1605 ;; Defined at:
  1606 ;;		line 161 in file "mcc_generated_files/can1.c"
  1607 ;; Parameters:    Size  Location     Type
  1608 ;;		None
  1609 ;; Auto vars:     Size  Location     Type
  1610 ;;		None
  1611 ;; Return value:  Size  Location     Type
  1612 ;;                  1    wreg      void 
  1613 ;; Registers used:
  1614 ;;		wreg, status,2, status,0, cstack
  1615 ;; Tracked objects:
  1616 ;;		On entry : 0/0
  1617 ;;		On exit  : 0/0
  1618 ;;		Unchanged: 0/0
  1619 ;; Data sizes:     COMRAM   BANK5   BANK6   BANK7   BANK8   BANK9  BANK10  BANK11  BANK12  BANK13  BANK14  BANK15  BANK1
      +6  BANK17  BANK18  BANK19  BANK20  BANK21  BANK22  BANK23  BANK24  BANK25  BANK26  BANK27  BANK28  BANK29  BANK30  BANK3
      +1  BANK32  BANK33  BANK34  BANK35  BANK36  BANK37  BANK38  BANK39  BANK40  BANK41  BANK42  BANK43  BANK44  BANK45  BANK4
      +6  BANK47  BANK48  BANK49  BANK50  BANK51  BANK52  BANK53  BANK54  BANK55
  1620 ;;      Params:         0       0       0       0       0       0       0       0       0       0       0       0       
      +0       0       0       0       0       0       0       0       0       0       0       0       0       0       0       
      +0       0       0       0       0       0       0       0       0       0       0       0       0       0       0       
      +0       0       0       0       0       0       0       0       0       0
  1621 ;;      Locals:         0       0       0       0       0       0       0       0       0       0       0       0       
      +0       0       0       0       0       0       0       0       0       0       0       0       0       0       0       
      +0       0       0       0       0       0       0       0       0       0       0       0       0       0       0       
      +0       0       0       0       0       0       0       0       0       0
  1622 ;;      Temps:          0       0       0       0       0       0       0       0       0       0       0       0       
      +0       0       0       0       0       0       0       0       0       0       0       0       0       0       0       
      +0       0       0       0       0       0       0       0       0       0       0       0       0       0       0       
      +0       0       0       0       0       0       0       0       0       0
  1623 ;;      Totals:         0       0       0       0       0       0       0       0       0       0       0       0       
      +0       0       0       0       0       0       0       0       0       0       0       0       0       0       0       
      +0       0       0       0       0       0       0       0       0       0       0       0       0       0       0       
      +0       0       0       0       0       0       0       0       0       0
  1624 ;;Total ram usage:        0 bytes
  1625 ;; Hardware stack levels used: 1
  1626 ;; Hardware stack levels required when called: 8
  1627 ;; This function calls:
  1628 ;;		_CAN1_SetFIFO1NotEmptyHandler
  1629 ;; This function is called by:
  1630 ;;		_CAN1_Initialize
  1631 ;; This function uses a non-reentrant model
  1632 ;;
  1633                           
  1634                           	psect	text12
  1635  004848                     __ptext12:
  1636                           	callstack 0
  1637  004848                     _CAN1_RX_FIFO_Configuration:
  1638                           	callstack 117
  1639  004848                     
  1640                           ;mcc_generated_files/can1.c: 164:     C1FIFOCON1L = 0x09;
  1641  004848  0E09               	movlw	9
  1642  00484A  0101               	movlb	1	; () banked
  1643  00484C  6F5C               	movwf	92,b	;volatile
  1644                           
  1645                           ;mcc_generated_files/can1.c: 167:     C1FIFOCON1H = 0x04;
  1646  00484E  0E04               	movlw	4
  1647  004850  6F5D               	movwf	93,b	;volatile
  1648                           
  1649                           ;mcc_generated_files/can1.c: 170:     C1FIFOCON1U = 0x60;
  1650  004852  0E60               	movlw	96
  1651  004854  6F5E               	movwf	94,b	;volatile
  1652                           
  1653                           ;mcc_generated_files/can1.c: 173:     C1FIFOCON1T = 0x05;
  1654  004856  0E05               	movlw	5
  1655  004858  6F5F               	movwf	95,b	;volatile
  1656  00485A                     
  1657                           ; BSR set to: 1
  1658                           ;mcc_generated_files/can1.c: 176:     CAN1_SetFIFO1NotEmptyHandler(C1__ReceiveFIFO1NotEm
      +                          ptyHandler);
  1659  00485A  0E94               	movlw	low _C1__ReceiveFIFO1NotEmptyHandler
  1660  00485C  0105               	movlb	5	; () banked
  1661  00485E  6F75               	movwf	CAN1_SetFIFO1NotEmptyHandler@handler& (0+255),b
  1662  004860  0E3C               	movlw	high _C1__ReceiveFIFO1NotEmptyHandler
  1663  004862  6F76               	movwf	(CAN1_SetFIFO1NotEmptyHandler@handler+1)& (0+255),b
  1664  004864  0E00               	movlw	low (_C1__ReceiveFIFO1NotEmptyHandler shr (0+16))
  1665  004866  6F77               	movwf	(CAN1_SetFIFO1NotEmptyHandler@handler+2)& (0+255),b
  1666  004868  ECF7  F024         	call	_CAN1_SetFIFO1NotEmptyHandler	;wreg free
  1667  00486C                     
  1668                           ;mcc_generated_files/can1.c: 178:     C1INTUbits.RXIE = 1;
  1669  00486C  0101               	movlb	1	; () banked
  1670  00486E  831E               	bsf	30,1,b	;volatile
  1671  004870                     
  1672                           ; BSR set to: 1
  1673                           ;mcc_generated_files/can1.c: 180:     PIR4bits.CANRXIF = 0;
  1674  004870  98B2               	bcf	178,4,c	;volatile
  1675  004872                     
  1676                           ; BSR set to: 1
  1677                           ;mcc_generated_files/can1.c: 181:     PIE4bits.CANRXIE = 1;
  1678  004872  88A2               	bsf	162,4,c	;volatile
  1679  004874                     
  1680                           ; BSR set to: 1
  1681  004874  0012               	return		;funcret
  1682  004876                     __end_of_CAN1_RX_FIFO_Configuration:
  1683                           	callstack 0
  1684                           
  1685 ;; *************** function _CAN1_SetFIFO1NotEmptyHandler *****************
  1686 ;; Defined at:
  1687 ;;		line 719 in file "mcc_generated_files/can1.c"
  1688 ;; Parameters:    Size  Location     Type
  1689 ;;  handler         3    0[BANK5 ] PTR FTN()void 
  1690 ;;		 -> C1__ReceiveFIFO1NotEmptyHandler(1), 
  1691 ;; Auto vars:     Size  Location     Type
  1692 ;;		None
  1693 ;; Return value:  Size  Location     Type
  1694 ;;                  1    wreg      void 
  1695 ;; Registers used:
  1696 ;;		wreg, status,2, status,0
  1697 ;; Tracked objects:
  1698 ;;		On entry : 0/0
  1699 ;;		On exit  : 0/0
  1700 ;;		Unchanged: 0/0
  1701 ;; Data sizes:     COMRAM   BANK5   BANK6   BANK7   BANK8   BANK9  BANK10  BANK11  BANK12  BANK13  BANK14  BANK15  BANK1
      +6  BANK17  BANK18  BANK19  BANK20  BANK21  BANK22  BANK23  BANK24  BANK25  BANK26  BANK27  BANK28  BANK29  BANK30  BANK3
      +1  BANK32  BANK33  BANK34  BANK35  BANK36  BANK37  BANK38  BANK39  BANK40  BANK41  BANK42  BANK43  BANK44  BANK45  BANK4
      +6  BANK47  BANK48  BANK49  BANK50  BANK51  BANK52  BANK53  BANK54  BANK55
  1702 ;;      Params:         0       3       0       0       0       0       0       0       0       0       0       0       
      +0       0       0       0       0       0       0       0       0       0       0       0       0       0       0       
      +0       0       0       0       0       0       0       0       0       0       0       0       0       0       0       
      +0       0       0       0       0       0       0       0       0       0
  1703 ;;      Locals:         0       0       0       0       0       0       0       0       0       0       0       0       
      +0       0       0       0       0       0       0       0       0       0       0       0       0       0       0       
      +0       0       0       0       0       0       0       0       0       0       0       0       0       0       0       
      +0       0       0       0       0       0       0       0       0       0
  1704 ;;      Temps:          0       0       0       0       0       0       0       0       0       0       0       0       
      +0       0       0       0       0       0       0       0       0       0       0       0       0       0       0       
      +0       0       0       0       0       0       0       0       0       0       0       0       0       0       0       
      +0       0       0       0       0       0       0       0       0       0
  1705 ;;      Totals:         0       3       0       0       0       0       0       0       0       0       0       0       
      +0       0       0       0       0       0       0       0       0       0       0       0       0       0       0       
      +0       0       0       0       0       0       0       0       0       0       0       0       0       0       0       
      +0       0       0       0       0       0       0       0       0       0
  1706 ;;Total ram usage:        3 bytes
  1707 ;; Hardware stack levels used: 1
  1708 ;; Hardware stack levels required when called: 7
  1709 ;; This function calls:
  1710 ;;		Nothing
  1711 ;; This function is called by:
  1712 ;;		_CAN1_RX_FIFO_Configuration
  1713 ;; This function uses a non-reentrant model
  1714 ;;
  1715                           
  1716                           	psect	text13
  1717  0049EE                     __ptext13:
  1718                           	callstack 0
  1719  0049EE                     _CAN1_SetFIFO1NotEmptyHandler:
  1720                           	callstack 117
  1721  0049EE                     
  1722                           ;mcc_generated_files/can1.c: 719: void CAN1_SetFIFO1NotEmptyHandler(void (*handler)(void
      +                          ));mcc_generated_files/can1.c: 720: {;mcc_generated_files/can1.c: 721:     CAN1_FIFO1Not
      +                          EmptyHandler = handler;
  1723  0049EE  C575  F545         	movff	CAN1_SetFIFO1NotEmptyHandler@handler,_CAN1_FIFO1NotEmptyHandler
  1724  0049F2  C576  F546         	movff	CAN1_SetFIFO1NotEmptyHandler@handler+1,_CAN1_FIFO1NotEmptyHandler+1
  1725  0049F6  C577  F547         	movff	CAN1_SetFIFO1NotEmptyHandler@handler+2,_CAN1_FIFO1NotEmptyHandler+2
  1726  0049FA  0012               	return		;funcret
  1727  0049FC                     __end_of_CAN1_SetFIFO1NotEmptyHandler:
  1728                           	callstack 0
  1729                           
  1730 ;; *************** function _CAN1_OperationModeSet *****************
  1731 ;; Defined at:
  1732 ;;		line 286 in file "mcc_generated_files/can1.c"
  1733 ;; Parameters:    Size  Location     Type
  1734 ;;  requestMode     1    wreg     const enum E22346
  1735 ;; Auto vars:     Size  Location     Type
  1736 ;;  requestMode     1    2[BANK5 ] const enum E22346
  1737 ;;  status          1    1[BANK5 ] enum E22356
  1738 ;;  opMode          1    0[BANK5 ] enum E22346
  1739 ;; Return value:  Size  Location     Type
  1740 ;;                  1    wreg      enum E22356
  1741 ;; Registers used:
  1742 ;;		wreg, status,2, status,0, cstack
  1743 ;; Tracked objects:
  1744 ;;		On entry : 0/0
  1745 ;;		On exit  : 0/0
  1746 ;;		Unchanged: 0/0
  1747 ;; Data sizes:     COMRAM   BANK5   BANK6   BANK7   BANK8   BANK9  BANK10  BANK11  BANK12  BANK13  BANK14  BANK15  BANK1
      +6  BANK17  BANK18  BANK19  BANK20  BANK21  BANK22  BANK23  BANK24  BANK25  BANK26  BANK27  BANK28  BANK29  BANK30  BANK3
      +1  BANK32  BANK33  BANK34  BANK35  BANK36  BANK37  BANK38  BANK39  BANK40  BANK41  BANK42  BANK43  BANK44  BANK45  BANK4
      +6  BANK47  BANK48  BANK49  BANK50  BANK51  BANK52  BANK53  BANK54  BANK55
  1748 ;;      Params:         0       0       0       0       0       0       0       0       0       0       0       0       
      +0       0       0       0       0       0       0       0       0       0       0       0       0       0       0       
      +0       0       0       0       0       0       0       0       0       0       0       0       0       0       0       
      +0       0       0       0       0       0       0       0       0       0
  1749 ;;      Locals:         0       3       0       0       0       0       0       0       0       0       0       0       
      +0       0       0       0       0       0       0       0       0       0       0       0       0       0       0       
      +0       0       0       0       0       0       0       0       0       0       0       0       0       0       0       
      +0       0       0       0       0       0       0       0       0       0
  1750 ;;      Temps:          0       0       0       0       0       0       0       0       0       0       0       0       
      +0       0       0       0       0       0       0       0       0       0       0       0       0       0       0       
      +0       0       0       0       0       0       0       0       0       0       0       0       0       0       0       
      +0       0       0       0       0       0       0       0       0       0
  1751 ;;      Totals:         0       3       0       0       0       0       0       0       0       0       0       0       
      +0       0       0       0       0       0       0       0       0       0       0       0       0       0       0       
      +0       0       0       0       0       0       0       0       0       0       0       0       0       0       0       
      +0       0       0       0       0       0       0       0       0       0
  1752 ;;Total ram usage:        3 bytes
  1753 ;; Hardware stack levels used: 1
  1754 ;; Hardware stack levels required when called: 8
  1755 ;; This function calls:
  1756 ;;		_CAN1_OperationModeGet
  1757 ;; This function is called by:
  1758 ;;		_CAN1_Initialize
  1759 ;;		_CAN1_Sleep
  1760 ;; This function uses a non-reentrant model
  1761 ;;
  1762                           
  1763                           	psect	text14
  1764  004352                     __ptext14:
  1765                           	callstack 0
  1766  004352                     _CAN1_OperationModeSet:
  1767                           	callstack 117
  1768                           
  1769                           ;incstack = 0
  1770                           ;CAN1_OperationModeSet@requestMode stored from wreg
  1771  004352  0105               	movlb	5	; () banked
  1772  004354  6F77               	movwf	CAN1_OperationModeSet@requestMode& (0+255),b
  1773  004356                     
  1774                           ;mcc_generated_files/can1.c: 286: CAN_OP_MODE_STATUS CAN1_OperationModeSet(const CAN_OP_
      +                          MODES requestMode);mcc_generated_files/can1.c: 287: {;mcc_generated_files/can1.c: 288:  
      +                             CAN_OP_MODE_STATUS status = CAN_OP_MODE_REQUEST_SUCCESS;
  1775  004356  0E00               	movlw	0
  1776  004358  0105               	movlb	5	; () banked
  1777  00435A  6F76               	movwf	CAN1_OperationModeSet@status& (0+255),b
  1778  00435C                     
  1779                           ; BSR set to: 5
  1780                           ;mcc_generated_files/can1.c: 289:     CAN_OP_MODES opMode = CAN1_OperationModeGet();
  1781  00435C  EC2F  F025         	call	_CAN1_OperationModeGet	;wreg free
  1782  004360  0105               	movlb	5	; () banked
  1783  004362  6F75               	movwf	CAN1_OperationModeSet@opMode& (0+255),b
  1784  004364                     
  1785                           ; BSR set to: 5
  1786                           ;mcc_generated_files/can1.c: 291:     if (CAN_CONFIGURATION_MODE == opMode
  1787  004364  0E04               	movlw	4
  1788  004366  1975               	xorwf	CAN1_OperationModeSet@opMode& (0+255),w,b
  1789  004368  B4D8               	btfsc	status,2,c
  1790  00436A  EFB9  F021         	goto	u1411
  1791  00436E  EFBB  F021         	goto	u1410
  1792  004372                     u1411:
  1793  004372  EFCC  F021         	goto	l2299
  1794  004376                     u1410:
  1795  004376                     
  1796                           ; BSR set to: 5
  1797  004376  0577               	decf	CAN1_OperationModeSet@requestMode& (0+255),w,b
  1798  004378  B4D8               	btfsc	status,2,c
  1799  00437A  EFC1  F021         	goto	u1421
  1800  00437E  EFC3  F021         	goto	u1420
  1801  004382                     u1421:
  1802  004382  EFCC  F021         	goto	l2299
  1803  004386                     u1420:
  1804  004386                     
  1805                           ; BSR set to: 5
  1806  004386  0E04               	movlw	4
  1807  004388  1977               	xorwf	CAN1_OperationModeSet@requestMode& (0+255),w,b
  1808  00438A  A4D8               	btfss	status,2,c
  1809  00438C  EFCA  F021         	goto	u1431
  1810  004390  EFCC  F021         	goto	u1430
  1811  004394                     u1431:
  1812  004394  EFF1  F021         	goto	l2305
  1813  004398                     u1430:
  1814  004398                     l2299:
  1815                           
  1816                           ; BSR set to: 5
  1817                           ;mcc_generated_files/can1.c: 294:     {;mcc_generated_files/can1.c: 295:         C1CONTb
      +                          its.REQOP = requestMode;
  1818  004398  0101               	movlb	1	; () banked
  1819  00439A  5103               	movf	3,w,b	;volatile
  1820  00439C  0105               	movlb	5	; () banked
  1821  00439E  1977               	xorwf	CAN1_OperationModeSet@requestMode& (0+255),w,b
  1822  0043A0  0BF8               	andlw	-8
  1823  0043A2  1977               	xorwf	CAN1_OperationModeSet@requestMode& (0+255),w,b
  1824  0043A4  0101               	movlb	1	; () banked
  1825  0043A6  6F03               	movwf	3,b	;volatile
  1826                           
  1827                           ;mcc_generated_files/can1.c: 297:         while (C1CONUbits.OPMOD != requestMode)
  1828  0043A8  EFE3  F021         	goto	l2303
  1829  0043AC                     l333:
  1830                           
  1831                           ; BSR set to: 5
  1832                           ;mcc_generated_files/can1.c: 298:         {;mcc_generated_files/can1.c: 300:            
      +                           if (1 == C1INTHbits.SERRIF)
  1833  0043AC  0101               	movlb	1	; () banked
  1834  0043AE  A91D               	btfss	29,4,b	;volatile
  1835  0043B0  EFDC  F021         	goto	u1441
  1836  0043B4  EFDE  F021         	goto	u1440
  1837  0043B8                     u1441:
  1838  0043B8  EFE3  F021         	goto	l2303
  1839  0043BC                     u1440:
  1840  0043BC                     
  1841                           ; BSR set to: 1
  1842                           ;mcc_generated_files/can1.c: 301:             {;mcc_generated_files/can1.c: 302:        
      +                                   status = CAN_OP_MODE_SYS_ERROR_OCCURED;
  1843  0043BC  0E02               	movlw	2
  1844  0043BE  0105               	movlb	5	; () banked
  1845  0043C0  6F76               	movwf	CAN1_OperationModeSet@status& (0+255),b
  1846                           
  1847                           ;mcc_generated_files/can1.c: 303:                 break;
  1848  0043C2  EFF3  F021         	goto	l336
  1849  0043C6                     l2303:
  1850                           
  1851                           ; BSR set to: 1
  1852                           ;mcc_generated_files/can1.c: 297:         while (C1CONUbits.OPMOD != requestMode)
  1853  0043C6  3902               	swapf	2,w,b	;volatile
  1854  0043C8  32E8               	rrcf	wreg,f,c
  1855  0043CA  0B07               	andlw	7
  1856  0043CC  0105               	movlb	5	; () banked
  1857  0043CE  1977               	xorwf	CAN1_OperationModeSet@requestMode& (0+255),w,b
  1858  0043D0  A4D8               	btfss	status,2,c
  1859  0043D2  EFED  F021         	goto	u1451
  1860  0043D6  EFEF  F021         	goto	u1450
  1861  0043DA                     u1451:
  1862  0043DA  EFD6  F021         	goto	l333
  1863  0043DE                     u1450:
  1864  0043DE  EFF3  F021         	goto	l336
  1865  0043E2                     l2305:
  1866                           
  1867                           ; BSR set to: 5
  1868                           ;mcc_generated_files/can1.c: 308:     {;mcc_generated_files/can1.c: 309:         status 
      +                          = CAN_OP_MODE_REQUEST_FAIL;
  1869  0043E2  0E01               	movlw	1
  1870  0043E4  6F76               	movwf	CAN1_OperationModeSet@status& (0+255),b
  1871  0043E6                     l336:
  1872                           
  1873                           ; BSR set to: 5
  1874                           ;mcc_generated_files/can1.c: 312:     return status;
  1875  0043E6  5176               	movf	CAN1_OperationModeSet@status& (0+255),w,b
  1876  0043E8                     
  1877                           ; BSR set to: 5
  1878  0043E8  0012               	return		;funcret
  1879  0043EA                     __end_of_CAN1_OperationModeSet:
  1880                           	callstack 0
  1881                           
  1882 ;; *************** function _CAN1_OperationModeGet *****************
  1883 ;; Defined at:
  1884 ;;		line 315 in file "mcc_generated_files/can1.c"
  1885 ;; Parameters:    Size  Location     Type
  1886 ;;		None
  1887 ;; Auto vars:     Size  Location     Type
  1888 ;;		None
  1889 ;; Return value:  Size  Location     Type
  1890 ;;                  1    wreg      enum E22346
  1891 ;; Registers used:
  1892 ;;		wreg, status,2, status,0
  1893 ;; Tracked objects:
  1894 ;;		On entry : 0/0
  1895 ;;		On exit  : 0/0
  1896 ;;		Unchanged: 0/0
  1897 ;; Data sizes:     COMRAM   BANK5   BANK6   BANK7   BANK8   BANK9  BANK10  BANK11  BANK12  BANK13  BANK14  BANK15  BANK1
      +6  BANK17  BANK18  BANK19  BANK20  BANK21  BANK22  BANK23  BANK24  BANK25  BANK26  BANK27  BANK28  BANK29  BANK30  BANK3
      +1  BANK32  BANK33  BANK34  BANK35  BANK36  BANK37  BANK38  BANK39  BANK40  BANK41  BANK42  BANK43  BANK44  BANK45  BANK4
      +6  BANK47  BANK48  BANK49  BANK50  BANK51  BANK52  BANK53  BANK54  BANK55
  1898 ;;      Params:         0       0       0       0       0       0       0       0       0       0       0       0       
      +0       0       0       0       0       0       0       0       0       0       0       0       0       0       0       
      +0       0       0       0       0       0       0       0       0       0       0       0       0       0       0       
      +0       0       0       0       0       0       0       0       0       0
  1899 ;;      Locals:         0       0       0       0       0       0       0       0       0       0       0       0       
      +0       0       0       0       0       0       0       0       0       0       0       0       0       0       0       
      +0       0       0       0       0       0       0       0       0       0       0       0       0       0       0       
      +0       0       0       0       0       0       0       0       0       0
  1900 ;;      Temps:          0       0       0       0       0       0       0       0       0       0       0       0       
      +0       0       0       0       0       0       0       0       0       0       0       0       0       0       0       
      +0       0       0       0       0       0       0       0       0       0       0       0       0       0       0       
      +0       0       0       0       0       0       0       0       0       0
  1901 ;;      Totals:         0       0       0       0       0       0       0       0       0       0       0       0       
      +0       0       0       0       0       0       0       0       0       0       0       0       0       0       0       
      +0       0       0       0       0       0       0       0       0       0       0       0       0       0       0       
      +0       0       0       0       0       0       0       0       0       0
  1902 ;;Total ram usage:        0 bytes
  1903 ;; Hardware stack levels used: 1
  1904 ;; Hardware stack levels required when called: 7
  1905 ;; This function calls:
  1906 ;;		Nothing
  1907 ;; This function is called by:
  1908 ;;		_CAN1_OperationModeSet
  1909 ;; This function uses a non-reentrant model
  1910 ;;
  1911                           
  1912                           	psect	text15
  1913  004A5E                     __ptext15:
  1914                           	callstack 0
  1915  004A5E                     _CAN1_OperationModeGet:
  1916                           	callstack 117
  1917  004A5E                     
  1918                           ;mcc_generated_files/can1.c: 317:     return C1CONUbits.OPMOD;
  1919  004A5E  0101               	movlb	1	; () banked
  1920  004A60  3902               	swapf	2,w,b	;volatile
  1921  004A62  32E8               	rrcf	wreg,f,c
  1922  004A64  0B07               	andlw	7
  1923  004A66                     
  1924                           ; BSR set to: 1
  1925  004A66  0012               	return		;funcret
  1926  004A68                     __end_of_CAN1_OperationModeGet:
  1927                           	callstack 0
  1928                           
  1929 ;; *************** function _CAN1_ErrorNotificationInterruptEnable *****************
  1930 ;; Defined at:
  1931 ;;		line 231 in file "mcc_generated_files/can1.c"
  1932 ;; Parameters:    Size  Location     Type
  1933 ;;		None
  1934 ;; Auto vars:     Size  Location     Type
  1935 ;;		None
  1936 ;; Return value:  Size  Location     Type
  1937 ;;                  1    wreg      void 
  1938 ;; Registers used:
  1939 ;;		wreg, status,2, status,0, cstack
  1940 ;; Tracked objects:
  1941 ;;		On entry : 0/0
  1942 ;;		On exit  : 0/0
  1943 ;;		Unchanged: 0/0
  1944 ;; Data sizes:     COMRAM   BANK5   BANK6   BANK7   BANK8   BANK9  BANK10  BANK11  BANK12  BANK13  BANK14  BANK15  BANK1
      +6  BANK17  BANK18  BANK19  BANK20  BANK21  BANK22  BANK23  BANK24  BANK25  BANK26  BANK27  BANK28  BANK29  BANK30  BANK3
      +1  BANK32  BANK33  BANK34  BANK35  BANK36  BANK37  BANK38  BANK39  BANK40  BANK41  BANK42  BANK43  BANK44  BANK45  BANK4
      +6  BANK47  BANK48  BANK49  BANK50  BANK51  BANK52  BANK53  BANK54  BANK55
  1945 ;;      Params:         0       0       0       0       0       0       0       0       0       0       0       0       
      +0       0       0       0       0       0       0       0       0       0       0       0       0       0       0       
      +0       0       0       0       0       0       0       0       0       0       0       0       0       0       0       
      +0       0       0       0       0       0       0       0       0       0
  1946 ;;      Locals:         0       0       0       0       0       0       0       0       0       0       0       0       
      +0       0       0       0       0       0       0       0       0       0       0       0       0       0       0       
      +0       0       0       0       0       0       0       0       0       0       0       0       0       0       0       
      +0       0       0       0       0       0       0       0       0       0
  1947 ;;      Temps:          0       0       0       0       0       0       0       0       0       0       0       0       
      +0       0       0       0       0       0       0       0       0       0       0       0       0       0       0       
      +0       0       0       0       0       0       0       0       0       0       0       0       0       0       0       
      +0       0       0       0       0       0       0       0       0       0
  1948 ;;      Totals:         0       0       0       0       0       0       0       0       0       0       0       0       
      +0       0       0       0       0       0       0       0       0       0       0       0       0       0       0       
      +0       0       0       0       0       0       0       0       0       0       0       0       0       0       0       
      +0       0       0       0       0       0       0       0       0       0
  1949 ;;Total ram usage:        0 bytes
  1950 ;; Hardware stack levels used: 1
  1951 ;; Hardware stack levels required when called: 8
  1952 ;; This function calls:
  1953 ;;		_CAN1_SetBusErrorInterruptHandler
  1954 ;;		_CAN1_SetBusWakeUpActivityInterruptHandler
  1955 ;;		_CAN1_SetInvalidMessageInterruptHandler
  1956 ;;		_CAN1_SetModeChangeInterruptHandler
  1957 ;;		_CAN1_SetRxBufferOverFlowInterruptHandler
  1958 ;;		_CAN1_SetSystemErrorInterruptHandler
  1959 ;;		_CAN1_SetTxAttemptInterruptHandler
  1960 ;; This function is called by:
  1961 ;;		_CAN1_Initialize
  1962 ;; This function uses a non-reentrant model
  1963 ;;
  1964                           
  1965                           	psect	text16
  1966  0043EA                     __ptext16:
  1967                           	callstack 0
  1968  0043EA                     _CAN1_ErrorNotificationInterruptEnable:
  1969                           	callstack 117
  1970  0043EA                     
  1971                           ;mcc_generated_files/can1.c: 233:     CAN1_SetInvalidMessageInterruptHandler(DefaultInva
      +                          lidMessageHandler);
  1972  0043EA  0E88               	movlw	low _DefaultInvalidMessageHandler
  1973  0043EC  0105               	movlb	5	; () banked
  1974  0043EE  6F75               	movwf	CAN1_SetInvalidMessageInterruptHandler@handler& (0+255),b
  1975  0043F0  0E4A               	movlw	high _DefaultInvalidMessageHandler
  1976  0043F2  6F76               	movwf	(CAN1_SetInvalidMessageInterruptHandler@handler+1)& (0+255),b
  1977  0043F4  0E00               	movlw	low (_DefaultInvalidMessageHandler shr (0+16))
  1978  0043F6  6F77               	movwf	(CAN1_SetInvalidMessageInterruptHandler@handler+2)& (0+255),b
  1979  0043F8  EC1A  F025         	call	_CAN1_SetInvalidMessageInterruptHandler	;wreg free
  1980                           
  1981                           ;mcc_generated_files/can1.c: 234:     CAN1_SetBusWakeUpActivityInterruptHandler(DefaultB
      +                          usWakeUpActivityHandler);
  1982  0043FC  0E8A               	movlw	low _DefaultBusWakeUpActivityHandler
  1983  0043FE  0105               	movlb	5	; () banked
  1984  004400  6F75               	movwf	CAN1_SetBusWakeUpActivityInterruptHandler@handler& (0+255),b
  1985  004402  0E4A               	movlw	high _DefaultBusWakeUpActivityHandler
  1986  004404  6F76               	movwf	(CAN1_SetBusWakeUpActivityInterruptHandler@handler+1)& (0+255),b
  1987  004406  0E00               	movlw	low (_DefaultBusWakeUpActivityHandler shr (0+16))
  1988  004408  6F77               	movwf	(CAN1_SetBusWakeUpActivityInterruptHandler@handler+2)& (0+255),b
  1989  00440A  EC21  F025         	call	_CAN1_SetBusWakeUpActivityInterruptHandler	;wreg free
  1990                           
  1991                           ;mcc_generated_files/can1.c: 235:     CAN1_SetBusErrorInterruptHandler(DefaultBusErrorHa
      +                          ndler);
  1992  00440E  0E8C               	movlw	low _DefaultBusErrorHandler
  1993  004410  0105               	movlb	5	; () banked
  1994  004412  6F75               	movwf	CAN1_SetBusErrorInterruptHandler@handler& (0+255),b
  1995  004414  0E4A               	movlw	high _DefaultBusErrorHandler
  1996  004416  6F76               	movwf	(CAN1_SetBusErrorInterruptHandler@handler+1)& (0+255),b
  1997  004418  0E00               	movlw	low (_DefaultBusErrorHandler shr (0+16))
  1998  00441A  6F77               	movwf	(CAN1_SetBusErrorInterruptHandler@handler+2)& (0+255),b
  1999  00441C  EC28  F025         	call	_CAN1_SetBusErrorInterruptHandler	;wreg free
  2000                           
  2001                           ;mcc_generated_files/can1.c: 236:     CAN1_SetModeChangeInterruptHandler(DefaultModeChan
      +                          geHandler);
  2002  004420  0E86               	movlw	low _DefaultModeChangeHandler
  2003  004422  0105               	movlb	5	; () banked
  2004  004424  6F75               	movwf	CAN1_SetModeChangeInterruptHandler@handler& (0+255),b
  2005  004426  0E4A               	movlw	high _DefaultModeChangeHandler
  2006  004428  6F76               	movwf	(CAN1_SetModeChangeInterruptHandler@handler+1)& (0+255),b
  2007  00442A  0E00               	movlw	low (_DefaultModeChangeHandler shr (0+16))
  2008  00442C  6F77               	movwf	(CAN1_SetModeChangeInterruptHandler@handler+2)& (0+255),b
  2009  00442E  EC13  F025         	call	_CAN1_SetModeChangeInterruptHandler	;wreg free
  2010                           
  2011                           ;mcc_generated_files/can1.c: 237:     CAN1_SetSystemErrorInterruptHandler(DefaultSystemE
      +                          rrorHandler);
  2012  004432  0E82               	movlw	low _DefaultSystemErrorHandler
  2013  004434  0105               	movlb	5	; () banked
  2014  004436  6F75               	movwf	CAN1_SetSystemErrorInterruptHandler@handler& (0+255),b
  2015  004438  0E4A               	movlw	high _DefaultSystemErrorHandler
  2016  00443A  6F76               	movwf	(CAN1_SetSystemErrorInterruptHandler@handler+1)& (0+255),b
  2017  00443C  0E00               	movlw	low (_DefaultSystemErrorHandler shr (0+16))
  2018  00443E  6F77               	movwf	(CAN1_SetSystemErrorInterruptHandler@handler+2)& (0+255),b
  2019  004440  EC05  F025         	call	_CAN1_SetSystemErrorInterruptHandler	;wreg free
  2020                           
  2021                           ;mcc_generated_files/can1.c: 238:     CAN1_SetTxAttemptInterruptHandler(DefaultTxAttempt
      +                          Handler);
  2022  004444  0E80               	movlw	low _DefaultTxAttemptHandler
  2023  004446  0105               	movlb	5	; () banked
  2024  004448  6F75               	movwf	CAN1_SetTxAttemptInterruptHandler@handler& (0+255),b
  2025  00444A  0E4A               	movlw	high _DefaultTxAttemptHandler
  2026  00444C  6F76               	movwf	(CAN1_SetTxAttemptInterruptHandler@handler+1)& (0+255),b
  2027  00444E  0E00               	movlw	low (_DefaultTxAttemptHandler shr (0+16))
  2028  004450  6F77               	movwf	(CAN1_SetTxAttemptInterruptHandler@handler+2)& (0+255),b
  2029  004452  ECFE  F024         	call	_CAN1_SetTxAttemptInterruptHandler	;wreg free
  2030                           
  2031                           ;mcc_generated_files/can1.c: 239:     CAN1_SetRxBufferOverFlowInterruptHandler(DefaultRx
      +                          BufferOverflowHandler);
  2032  004456  0E84               	movlw	low _DefaultRxBufferOverflowHandler
  2033  004458  0105               	movlb	5	; () banked
  2034  00445A  6F75               	movwf	CAN1_SetRxBufferOverFlowInterruptHandler@handler& (0+255),b
  2035  00445C  0E4A               	movlw	high _DefaultRxBufferOverflowHandler
  2036  00445E  6F76               	movwf	(CAN1_SetRxBufferOverFlowInterruptHandler@handler+1)& (0+255),b
  2037  004460  0E00               	movlw	low (_DefaultRxBufferOverflowHandler shr (0+16))
  2038  004462  6F77               	movwf	(CAN1_SetRxBufferOverFlowInterruptHandler@handler+2)& (0+255),b
  2039  004464  EC0C  F025         	call	_CAN1_SetRxBufferOverFlowInterruptHandler	;wreg free
  2040  004468                     
  2041                           ;mcc_generated_files/can1.c: 240:     PIR0bits.CANIF = 0;
  2042  004468  9CAE               	bcf	174,6,c	;volatile
  2043  00446A                     
  2044                           ;mcc_generated_files/can1.c: 243:     C1INTL = 0x00;
  2045  00446A  0E00               	movlw	0
  2046  00446C  0101               	movlb	1	; () banked
  2047  00446E  6F1C               	movwf	28,b	;volatile
  2048  004470                     
  2049                           ; BSR set to: 1
  2050                           ;mcc_generated_files/can1.c: 246:     C1INTH = 0x00;
  2051  004470  0E00               	movlw	0
  2052  004472  6F1D               	movwf	29,b	;volatile
  2053  004474                     
  2054                           ; BSR set to: 1
  2055                           ;mcc_generated_files/can1.c: 249:     C1INTU = 0x0A;
  2056  004474  0E0A               	movlw	10
  2057  004476  6F1E               	movwf	30,b	;volatile
  2058  004478                     
  2059                           ; BSR set to: 1
  2060                           ;mcc_generated_files/can1.c: 252:     C1INTT = 0xFC;
  2061  004478  0EFC               	movlw	252
  2062  00447A  6F1F               	movwf	31,b	;volatile
  2063  00447C                     
  2064                           ; BSR set to: 1
  2065                           ;mcc_generated_files/can1.c: 254:     PIE0bits.CANIE = 1;
  2066  00447C  8C9E               	bsf	158,6,c	;volatile
  2067  00447E                     
  2068                           ; BSR set to: 1
  2069  00447E  0012               	return		;funcret
  2070  004480                     __end_of_CAN1_ErrorNotificationInterruptEnable:
  2071                           	callstack 0
  2072                           
  2073 ;; *************** function _CAN1_SetTxAttemptInterruptHandler *****************
  2074 ;; Defined at:
  2075 ;;		line 656 in file "mcc_generated_files/can1.c"
  2076 ;; Parameters:    Size  Location     Type
  2077 ;;  handler         3    0[BANK5 ] PTR FTN()void 
  2078 ;;		 -> DefaultTxAttemptHandler(1), 
  2079 ;; Auto vars:     Size  Location     Type
  2080 ;;		None
  2081 ;; Return value:  Size  Location     Type
  2082 ;;                  1    wreg      void 
  2083 ;; Registers used:
  2084 ;;		wreg, status,2, status,0
  2085 ;; Tracked objects:
  2086 ;;		On entry : 0/0
  2087 ;;		On exit  : 0/0
  2088 ;;		Unchanged: 0/0
  2089 ;; Data sizes:     COMRAM   BANK5   BANK6   BANK7   BANK8   BANK9  BANK10  BANK11  BANK12  BANK13  BANK14  BANK15  BANK1
      +6  BANK17  BANK18  BANK19  BANK20  BANK21  BANK22  BANK23  BANK24  BANK25  BANK26  BANK27  BANK28  BANK29  BANK30  BANK3
      +1  BANK32  BANK33  BANK34  BANK35  BANK36  BANK37  BANK38  BANK39  BANK40  BANK41  BANK42  BANK43  BANK44  BANK45  BANK4
      +6  BANK47  BANK48  BANK49  BANK50  BANK51  BANK52  BANK53  BANK54  BANK55
  2090 ;;      Params:         0       3       0       0       0       0       0       0       0       0       0       0       
      +0       0       0       0       0       0       0       0       0       0       0       0       0       0       0       
      +0       0       0       0       0       0       0       0       0       0       0       0       0       0       0       
      +0       0       0       0       0       0       0       0       0       0
  2091 ;;      Locals:         0       0       0       0       0       0       0       0       0       0       0       0       
      +0       0       0       0       0       0       0       0       0       0       0       0       0       0       0       
      +0       0       0       0       0       0       0       0       0       0       0       0       0       0       0       
      +0       0       0       0       0       0       0       0       0       0
  2092 ;;      Temps:          0       0       0       0       0       0       0       0       0       0       0       0       
      +0       0       0       0       0       0       0       0       0       0       0       0       0       0       0       
      +0       0       0       0       0       0       0       0       0       0       0       0       0       0       0       
      +0       0       0       0       0       0       0       0       0       0
  2093 ;;      Totals:         0       3       0       0       0       0       0       0       0       0       0       0       
      +0       0       0       0       0       0       0       0       0       0       0       0       0       0       0       
      +0       0       0       0       0       0       0       0       0       0       0       0       0       0       0       
      +0       0       0       0       0       0       0       0       0       0
  2094 ;;Total ram usage:        3 bytes
  2095 ;; Hardware stack levels used: 1
  2096 ;; Hardware stack levels required when called: 7
  2097 ;; This function calls:
  2098 ;;		Nothing
  2099 ;; This function is called by:
  2100 ;;		_CAN1_ErrorNotificationInterruptEnable
  2101 ;; This function uses a non-reentrant model
  2102 ;;
  2103                           
  2104                           	psect	text17
  2105  0049FC                     __ptext17:
  2106                           	callstack 0
  2107  0049FC                     _CAN1_SetTxAttemptInterruptHandler:
  2108                           	callstack 117
  2109  0049FC                     
  2110                           ;mcc_generated_files/can1.c: 656: void CAN1_SetTxAttemptInterruptHandler(void (*handler)
      +                          (void));mcc_generated_files/can1.c: 657: {;mcc_generated_files/can1.c: 658:     CAN1_TxA
      +                          ttemptHandler = handler;
  2111  0049FC  C575  F563         	movff	CAN1_SetTxAttemptInterruptHandler@handler,_CAN1_TxAttemptHandler
  2112  004A00  C576  F564         	movff	CAN1_SetTxAttemptInterruptHandler@handler+1,_CAN1_TxAttemptHandler+1
  2113  004A04  C577  F565         	movff	CAN1_SetTxAttemptInterruptHandler@handler+2,_CAN1_TxAttemptHandler+2
  2114  004A08  0012               	return		;funcret
  2115  004A0A                     __end_of_CAN1_SetTxAttemptInterruptHandler:
  2116                           	callstack 0
  2117                           
  2118 ;; *************** function _CAN1_SetSystemErrorInterruptHandler *****************
  2119 ;; Defined at:
  2120 ;;		line 651 in file "mcc_generated_files/can1.c"
  2121 ;; Parameters:    Size  Location     Type
  2122 ;;  handler         3    0[BANK5 ] PTR FTN()void 
  2123 ;;		 -> DefaultSystemErrorHandler(1), 
  2124 ;; Auto vars:     Size  Location     Type
  2125 ;;		None
  2126 ;; Return value:  Size  Location     Type
  2127 ;;                  1    wreg      void 
  2128 ;; Registers used:
  2129 ;;		wreg, status,2, status,0
  2130 ;; Tracked objects:
  2131 ;;		On entry : 0/0
  2132 ;;		On exit  : 0/0
  2133 ;;		Unchanged: 0/0
  2134 ;; Data sizes:     COMRAM   BANK5   BANK6   BANK7   BANK8   BANK9  BANK10  BANK11  BANK12  BANK13  BANK14  BANK15  BANK1
      +6  BANK17  BANK18  BANK19  BANK20  BANK21  BANK22  BANK23  BANK24  BANK25  BANK26  BANK27  BANK28  BANK29  BANK30  BANK3
      +1  BANK32  BANK33  BANK34  BANK35  BANK36  BANK37  BANK38  BANK39  BANK40  BANK41  BANK42  BANK43  BANK44  BANK45  BANK4
      +6  BANK47  BANK48  BANK49  BANK50  BANK51  BANK52  BANK53  BANK54  BANK55
  2135 ;;      Params:         0       3       0       0       0       0       0       0       0       0       0       0       
      +0       0       0       0       0       0       0       0       0       0       0       0       0       0       0       
      +0       0       0       0       0       0       0       0       0       0       0       0       0       0       0       
      +0       0       0       0       0       0       0       0       0       0
  2136 ;;      Locals:         0       0       0       0       0       0       0       0       0       0       0       0       
      +0       0       0       0       0       0       0       0       0       0       0       0       0       0       0       
      +0       0       0       0       0       0       0       0       0       0       0       0       0       0       0       
      +0       0       0       0       0       0       0       0       0       0
  2137 ;;      Temps:          0       0       0       0       0       0       0       0       0       0       0       0       
      +0       0       0       0       0       0       0       0       0       0       0       0       0       0       0       
      +0       0       0       0       0       0       0       0       0       0       0       0       0       0       0       
      +0       0       0       0       0       0       0       0       0       0
  2138 ;;      Totals:         0       3       0       0       0       0       0       0       0       0       0       0       
      +0       0       0       0       0       0       0       0       0       0       0       0       0       0       0       
      +0       0       0       0       0       0       0       0       0       0       0       0       0       0       0       
      +0       0       0       0       0       0       0       0       0       0
  2139 ;;Total ram usage:        3 bytes
  2140 ;; Hardware stack levels used: 1
  2141 ;; Hardware stack levels required when called: 7
  2142 ;; This function calls:
  2143 ;;		Nothing
  2144 ;; This function is called by:
  2145 ;;		_CAN1_ErrorNotificationInterruptEnable
  2146 ;; This function uses a non-reentrant model
  2147 ;;
  2148                           
  2149                           	psect	text18
  2150  004A0A                     __ptext18:
  2151                           	callstack 0
  2152  004A0A                     _CAN1_SetSystemErrorInterruptHandler:
  2153                           	callstack 117
  2154  004A0A                     
  2155                           ;mcc_generated_files/can1.c: 651: void CAN1_SetSystemErrorInterruptHandler(void (*handle
      +                          r)(void));mcc_generated_files/can1.c: 652: {;mcc_generated_files/can1.c: 653:     CAN1_S
      +                          ystemErrorHandler = handler;
  2156  004A0A  C575  F566         	movff	CAN1_SetSystemErrorInterruptHandler@handler,_CAN1_SystemErrorHandler
  2157  004A0E  C576  F567         	movff	CAN1_SetSystemErrorInterruptHandler@handler+1,_CAN1_SystemErrorHandler+1
  2158  004A12  C577  F568         	movff	CAN1_SetSystemErrorInterruptHandler@handler+2,_CAN1_SystemErrorHandler+2
  2159  004A16  0012               	return		;funcret
  2160  004A18                     __end_of_CAN1_SetSystemErrorInterruptHandler:
  2161                           	callstack 0
  2162                           
  2163 ;; *************** function _CAN1_SetRxBufferOverFlowInterruptHandler *****************
  2164 ;; Defined at:
  2165 ;;		line 661 in file "mcc_generated_files/can1.c"
  2166 ;; Parameters:    Size  Location     Type
  2167 ;;  handler         3    0[BANK5 ] PTR FTN()void 
  2168 ;;		 -> DefaultRxBufferOverflowHandler(1), 
  2169 ;; Auto vars:     Size  Location     Type
  2170 ;;		None
  2171 ;; Return value:  Size  Location     Type
  2172 ;;                  1    wreg      void 
  2173 ;; Registers used:
  2174 ;;		wreg, status,2, status,0
  2175 ;; Tracked objects:
  2176 ;;		On entry : 0/0
  2177 ;;		On exit  : 0/0
  2178 ;;		Unchanged: 0/0
  2179 ;; Data sizes:     COMRAM   BANK5   BANK6   BANK7   BANK8   BANK9  BANK10  BANK11  BANK12  BANK13  BANK14  BANK15  BANK1
      +6  BANK17  BANK18  BANK19  BANK20  BANK21  BANK22  BANK23  BANK24  BANK25  BANK26  BANK27  BANK28  BANK29  BANK30  BANK3
      +1  BANK32  BANK33  BANK34  BANK35  BANK36  BANK37  BANK38  BANK39  BANK40  BANK41  BANK42  BANK43  BANK44  BANK45  BANK4
      +6  BANK47  BANK48  BANK49  BANK50  BANK51  BANK52  BANK53  BANK54  BANK55
  2180 ;;      Params:         0       3       0       0       0       0       0       0       0       0       0       0       
      +0       0       0       0       0       0       0       0       0       0       0       0       0       0       0       
      +0       0       0       0       0       0       0       0       0       0       0       0       0       0       0       
      +0       0       0       0       0       0       0       0       0       0
  2181 ;;      Locals:         0       0       0       0       0       0       0       0       0       0       0       0       
      +0       0       0       0       0       0       0       0       0       0       0       0       0       0       0       
      +0       0       0       0       0       0       0       0       0       0       0       0       0       0       0       
      +0       0       0       0       0       0       0       0       0       0
  2182 ;;      Temps:          0       0       0       0       0       0       0       0       0       0       0       0       
      +0       0       0       0       0       0       0       0       0       0       0       0       0       0       0       
      +0       0       0       0       0       0       0       0       0       0       0       0       0       0       0       
      +0       0       0       0       0       0       0       0       0       0
  2183 ;;      Totals:         0       3       0       0       0       0       0       0       0       0       0       0       
      +0       0       0       0       0       0       0       0       0       0       0       0       0       0       0       
      +0       0       0       0       0       0       0       0       0       0       0       0       0       0       0       
      +0       0       0       0       0       0       0       0       0       0
  2184 ;;Total ram usage:        3 bytes
  2185 ;; Hardware stack levels used: 1
  2186 ;; Hardware stack levels required when called: 7
  2187 ;; This function calls:
  2188 ;;		Nothing
  2189 ;; This function is called by:
  2190 ;;		_CAN1_ErrorNotificationInterruptEnable
  2191 ;; This function uses a non-reentrant model
  2192 ;;
  2193                           
  2194                           	psect	text19
  2195  004A18                     __ptext19:
  2196                           	callstack 0
  2197  004A18                     _CAN1_SetRxBufferOverFlowInterruptHandler:
  2198                           	callstack 117
  2199  004A18                     
  2200                           ;mcc_generated_files/can1.c: 661: void CAN1_SetRxBufferOverFlowInterruptHandler(void (*h
      +                          andler)(void));mcc_generated_files/can1.c: 662: {;mcc_generated_files/can1.c: 663:     C
      +                          AN1_RxBufferOverflowHandler = handler;
  2201  004A18  C575  F560         	movff	CAN1_SetRxBufferOverFlowInterruptHandler@handler,_CAN1_RxBufferOverflowHandler
  2202  004A1C  C576  F561         	movff	CAN1_SetRxBufferOverFlowInterruptHandler@handler+1,_CAN1_RxBufferOverflowHandler+
      +                          1
  2203  004A20  C577  F562         	movff	CAN1_SetRxBufferOverFlowInterruptHandler@handler+2,_CAN1_RxBufferOverflowHandler+
      +                          2
  2204  004A24  0012               	return		;funcret
  2205  004A26                     __end_of_CAN1_SetRxBufferOverFlowInterruptHandler:
  2206                           	callstack 0
  2207                           
  2208 ;; *************** function _CAN1_SetModeChangeInterruptHandler *****************
  2209 ;; Defined at:
  2210 ;;		line 646 in file "mcc_generated_files/can1.c"
  2211 ;; Parameters:    Size  Location     Type
  2212 ;;  handler         3    0[BANK5 ] PTR FTN()void 
  2213 ;;		 -> DefaultModeChangeHandler(1), 
  2214 ;; Auto vars:     Size  Location     Type
  2215 ;;		None
  2216 ;; Return value:  Size  Location     Type
  2217 ;;                  1    wreg      void 
  2218 ;; Registers used:
  2219 ;;		wreg, status,2, status,0
  2220 ;; Tracked objects:
  2221 ;;		On entry : 0/0
  2222 ;;		On exit  : 0/0
  2223 ;;		Unchanged: 0/0
  2224 ;; Data sizes:     COMRAM   BANK5   BANK6   BANK7   BANK8   BANK9  BANK10  BANK11  BANK12  BANK13  BANK14  BANK15  BANK1
      +6  BANK17  BANK18  BANK19  BANK20  BANK21  BANK22  BANK23  BANK24  BANK25  BANK26  BANK27  BANK28  BANK29  BANK30  BANK3
      +1  BANK32  BANK33  BANK34  BANK35  BANK36  BANK37  BANK38  BANK39  BANK40  BANK41  BANK42  BANK43  BANK44  BANK45  BANK4
      +6  BANK47  BANK48  BANK49  BANK50  BANK51  BANK52  BANK53  BANK54  BANK55
  2225 ;;      Params:         0       3       0       0       0       0       0       0       0       0       0       0       
      +0       0       0       0       0       0       0       0       0       0       0       0       0       0       0       
      +0       0       0       0       0       0       0       0       0       0       0       0       0       0       0       
      +0       0       0       0       0       0       0       0       0       0
  2226 ;;      Locals:         0       0       0       0       0       0       0       0       0       0       0       0       
      +0       0       0       0       0       0       0       0       0       0       0       0       0       0       0       
      +0       0       0       0       0       0       0       0       0       0       0       0       0       0       0       
      +0       0       0       0       0       0       0       0       0       0
  2227 ;;      Temps:          0       0       0       0       0       0       0       0       0       0       0       0       
      +0       0       0       0       0       0       0       0       0       0       0       0       0       0       0       
      +0       0       0       0       0       0       0       0       0       0       0       0       0       0       0       
      +0       0       0       0       0       0       0       0       0       0
  2228 ;;      Totals:         0       3       0       0       0       0       0       0       0       0       0       0       
      +0       0       0       0       0       0       0       0       0       0       0       0       0       0       0       
      +0       0       0       0       0       0       0       0       0       0       0       0       0       0       0       
      +0       0       0       0       0       0       0       0       0       0
  2229 ;;Total ram usage:        3 bytes
  2230 ;; Hardware stack levels used: 1
  2231 ;; Hardware stack levels required when called: 7
  2232 ;; This function calls:
  2233 ;;		Nothing
  2234 ;; This function is called by:
  2235 ;;		_CAN1_ErrorNotificationInterruptEnable
  2236 ;; This function uses a non-reentrant model
  2237 ;;
  2238                           
  2239                           	psect	text20
  2240  004A26                     __ptext20:
  2241                           	callstack 0
  2242  004A26                     _CAN1_SetModeChangeInterruptHandler:
  2243                           	callstack 117
  2244  004A26                     
  2245                           ;mcc_generated_files/can1.c: 646: void CAN1_SetModeChangeInterruptHandler(void (*handler
      +                          )(void));mcc_generated_files/can1.c: 647: {;mcc_generated_files/can1.c: 648:     CAN1_Mo
      +                          deChangeHandler = handler;
  2246  004A26  C575  F569         	movff	CAN1_SetModeChangeInterruptHandler@handler,_CAN1_ModeChangeHandler
  2247  004A2A  C576  F56A         	movff	CAN1_SetModeChangeInterruptHandler@handler+1,_CAN1_ModeChangeHandler+1
  2248  004A2E  C577  F56B         	movff	CAN1_SetModeChangeInterruptHandler@handler+2,_CAN1_ModeChangeHandler+2
  2249  004A32  0012               	return		;funcret
  2250  004A34                     __end_of_CAN1_SetModeChangeInterruptHandler:
  2251                           	callstack 0
  2252                           
  2253 ;; *************** function _CAN1_SetInvalidMessageInterruptHandler *****************
  2254 ;; Defined at:
  2255 ;;		line 631 in file "mcc_generated_files/can1.c"
  2256 ;; Parameters:    Size  Location     Type
  2257 ;;  handler         3    0[BANK5 ] PTR FTN()void 
  2258 ;;		 -> DefaultInvalidMessageHandler(1), 
  2259 ;; Auto vars:     Size  Location     Type
  2260 ;;		None
  2261 ;; Return value:  Size  Location     Type
  2262 ;;                  1    wreg      void 
  2263 ;; Registers used:
  2264 ;;		wreg, status,2, status,0
  2265 ;; Tracked objects:
  2266 ;;		On entry : 0/0
  2267 ;;		On exit  : 0/0
  2268 ;;		Unchanged: 0/0
  2269 ;; Data sizes:     COMRAM   BANK5   BANK6   BANK7   BANK8   BANK9  BANK10  BANK11  BANK12  BANK13  BANK14  BANK15  BANK1
      +6  BANK17  BANK18  BANK19  BANK20  BANK21  BANK22  BANK23  BANK24  BANK25  BANK26  BANK27  BANK28  BANK29  BANK30  BANK3
      +1  BANK32  BANK33  BANK34  BANK35  BANK36  BANK37  BANK38  BANK39  BANK40  BANK41  BANK42  BANK43  BANK44  BANK45  BANK4
      +6  BANK47  BANK48  BANK49  BANK50  BANK51  BANK52  BANK53  BANK54  BANK55
  2270 ;;      Params:         0       3       0       0       0       0       0       0       0       0       0       0       
      +0       0       0       0       0       0       0       0       0       0       0       0       0       0       0       
      +0       0       0       0       0       0       0       0       0       0       0       0       0       0       0       
      +0       0       0       0       0       0       0       0       0       0
  2271 ;;      Locals:         0       0       0       0       0       0       0       0       0       0       0       0       
      +0       0       0       0       0       0       0       0       0       0       0       0       0       0       0       
      +0       0       0       0       0       0       0       0       0       0       0       0       0       0       0       
      +0       0       0       0       0       0       0       0       0       0
  2272 ;;      Temps:          0       0       0       0       0       0       0       0       0       0       0       0       
      +0       0       0       0       0       0       0       0       0       0       0       0       0       0       0       
      +0       0       0       0       0       0       0       0       0       0       0       0       0       0       0       
      +0       0       0       0       0       0       0       0       0       0
  2273 ;;      Totals:         0       3       0       0       0       0       0       0       0       0       0       0       
      +0       0       0       0       0       0       0       0       0       0       0       0       0       0       0       
      +0       0       0       0       0       0       0       0       0       0       0       0       0       0       0       
      +0       0       0       0       0       0       0       0       0       0
  2274 ;;Total ram usage:        3 bytes
  2275 ;; Hardware stack levels used: 1
  2276 ;; Hardware stack levels required when called: 7
  2277 ;; This function calls:
  2278 ;;		Nothing
  2279 ;; This function is called by:
  2280 ;;		_CAN1_ErrorNotificationInterruptEnable
  2281 ;; This function uses a non-reentrant model
  2282 ;;
  2283                           
  2284                           	psect	text21
  2285  004A34                     __ptext21:
  2286                           	callstack 0
  2287  004A34                     _CAN1_SetInvalidMessageInterruptHandler:
  2288                           	callstack 117
  2289  004A34                     
  2290                           ;mcc_generated_files/can1.c: 631: void CAN1_SetInvalidMessageInterruptHandler(void (*han
      +                          dler)(void));mcc_generated_files/can1.c: 632: {;mcc_generated_files/can1.c: 633:     CAN
      +                          1_InvalidMessageHandler = handler;
  2291  004A34  C575  F572         	movff	CAN1_SetInvalidMessageInterruptHandler@handler,_CAN1_InvalidMessageHandler
  2292  004A38  C576  F573         	movff	CAN1_SetInvalidMessageInterruptHandler@handler+1,_CAN1_InvalidMessageHandler+1
  2293  004A3C  C577  F574         	movff	CAN1_SetInvalidMessageInterruptHandler@handler+2,_CAN1_InvalidMessageHandler+2
  2294  004A40  0012               	return		;funcret
  2295  004A42                     __end_of_CAN1_SetInvalidMessageInterruptHandler:
  2296                           	callstack 0
  2297                           
  2298 ;; *************** function _CAN1_SetBusWakeUpActivityInterruptHandler *****************
  2299 ;; Defined at:
  2300 ;;		line 636 in file "mcc_generated_files/can1.c"
  2301 ;; Parameters:    Size  Location     Type
  2302 ;;  handler         3    0[BANK5 ] PTR FTN()void 
  2303 ;;		 -> DefaultBusWakeUpActivityHandler(1), 
  2304 ;; Auto vars:     Size  Location     Type
  2305 ;;		None
  2306 ;; Return value:  Size  Location     Type
  2307 ;;                  1    wreg      void 
  2308 ;; Registers used:
  2309 ;;		wreg, status,2, status,0
  2310 ;; Tracked objects:
  2311 ;;		On entry : 0/0
  2312 ;;		On exit  : 0/0
  2313 ;;		Unchanged: 0/0
  2314 ;; Data sizes:     COMRAM   BANK5   BANK6   BANK7   BANK8   BANK9  BANK10  BANK11  BANK12  BANK13  BANK14  BANK15  BANK1
      +6  BANK17  BANK18  BANK19  BANK20  BANK21  BANK22  BANK23  BANK24  BANK25  BANK26  BANK27  BANK28  BANK29  BANK30  BANK3
      +1  BANK32  BANK33  BANK34  BANK35  BANK36  BANK37  BANK38  BANK39  BANK40  BANK41  BANK42  BANK43  BANK44  BANK45  BANK4
      +6  BANK47  BANK48  BANK49  BANK50  BANK51  BANK52  BANK53  BANK54  BANK55
  2315 ;;      Params:         0       3       0       0       0       0       0       0       0       0       0       0       
      +0       0       0       0       0       0       0       0       0       0       0       0       0       0       0       
      +0       0       0       0       0       0       0       0       0       0       0       0       0       0       0       
      +0       0       0       0       0       0       0       0       0       0
  2316 ;;      Locals:         0       0       0       0       0       0       0       0       0       0       0       0       
      +0       0       0       0       0       0       0       0       0       0       0       0       0       0       0       
      +0       0       0       0       0       0       0       0       0       0       0       0       0       0       0       
      +0       0       0       0       0       0       0       0       0       0
  2317 ;;      Temps:          0       0       0       0       0       0       0       0       0       0       0       0       
      +0       0       0       0       0       0       0       0       0       0       0       0       0       0       0       
      +0       0       0       0       0       0       0       0       0       0       0       0       0       0       0       
      +0       0       0       0       0       0       0       0       0       0
  2318 ;;      Totals:         0       3       0       0       0       0       0       0       0       0       0       0       
      +0       0       0       0       0       0       0       0       0       0       0       0       0       0       0       
      +0       0       0       0       0       0       0       0       0       0       0       0       0       0       0       
      +0       0       0       0       0       0       0       0       0       0
  2319 ;;Total ram usage:        3 bytes
  2320 ;; Hardware stack levels used: 1
  2321 ;; Hardware stack levels required when called: 7
  2322 ;; This function calls:
  2323 ;;		Nothing
  2324 ;; This function is called by:
  2325 ;;		_CAN1_ErrorNotificationInterruptEnable
  2326 ;; This function uses a non-reentrant model
  2327 ;;
  2328                           
  2329                           	psect	text22
  2330  004A42                     __ptext22:
  2331                           	callstack 0
  2332  004A42                     _CAN1_SetBusWakeUpActivityInterruptHandler:
  2333                           	callstack 117
  2334  004A42                     
  2335                           ;mcc_generated_files/can1.c: 636: void CAN1_SetBusWakeUpActivityInterruptHandler(void (*
      +                          handler)(void));mcc_generated_files/can1.c: 637: {;mcc_generated_files/can1.c: 638:     
      +                          CAN1_BusWakeUpActivityHandler = handler;
  2336  004A42  C575  F56F         	movff	CAN1_SetBusWakeUpActivityInterruptHandler@handler,_CAN1_BusWakeUpActivityHandler
  2337  004A46  C576  F570         	movff	CAN1_SetBusWakeUpActivityInterruptHandler@handler+1,_CAN1_BusWakeUpActivityHandle
      +                          r+1
  2338  004A4A  C577  F571         	movff	CAN1_SetBusWakeUpActivityInterruptHandler@handler+2,_CAN1_BusWakeUpActivityHandle
      +                          r+2
  2339  004A4E  0012               	return		;funcret
  2340  004A50                     __end_of_CAN1_SetBusWakeUpActivityInterruptHandler:
  2341                           	callstack 0
  2342                           
  2343 ;; *************** function _CAN1_SetBusErrorInterruptHandler *****************
  2344 ;; Defined at:
  2345 ;;		line 641 in file "mcc_generated_files/can1.c"
  2346 ;; Parameters:    Size  Location     Type
  2347 ;;  handler         3    0[BANK5 ] PTR FTN()void 
  2348 ;;		 -> DefaultBusErrorHandler(1), 
  2349 ;; Auto vars:     Size  Location     Type
  2350 ;;		None
  2351 ;; Return value:  Size  Location     Type
  2352 ;;                  1    wreg      void 
  2353 ;; Registers used:
  2354 ;;		wreg, status,2, status,0
  2355 ;; Tracked objects:
  2356 ;;		On entry : 0/0
  2357 ;;		On exit  : 0/0
  2358 ;;		Unchanged: 0/0
  2359 ;; Data sizes:     COMRAM   BANK5   BANK6   BANK7   BANK8   BANK9  BANK10  BANK11  BANK12  BANK13  BANK14  BANK15  BANK1
      +6  BANK17  BANK18  BANK19  BANK20  BANK21  BANK22  BANK23  BANK24  BANK25  BANK26  BANK27  BANK28  BANK29  BANK30  BANK3
      +1  BANK32  BANK33  BANK34  BANK35  BANK36  BANK37  BANK38  BANK39  BANK40  BANK41  BANK42  BANK43  BANK44  BANK45  BANK4
      +6  BANK47  BANK48  BANK49  BANK50  BANK51  BANK52  BANK53  BANK54  BANK55
  2360 ;;      Params:         0       3       0       0       0       0       0       0       0       0       0       0       
      +0       0       0       0       0       0       0       0       0       0       0       0       0       0       0       
      +0       0       0       0       0       0       0       0       0       0       0       0       0       0       0       
      +0       0       0       0       0       0       0       0       0       0
  2361 ;;      Locals:         0       0       0       0       0       0       0       0       0       0       0       0       
      +0       0       0       0       0       0       0       0       0       0       0       0       0       0       0       
      +0       0       0       0       0       0       0       0       0       0       0       0       0       0       0       
      +0       0       0       0       0       0       0       0       0       0
  2362 ;;      Temps:          0       0       0       0       0       0       0       0       0       0       0       0       
      +0       0       0       0       0       0       0       0       0       0       0       0       0       0       0       
      +0       0       0       0       0       0       0       0       0       0       0       0       0       0       0       
      +0       0       0       0       0       0       0       0       0       0
  2363 ;;      Totals:         0       3       0       0       0       0       0       0       0       0       0       0       
      +0       0       0       0       0       0       0       0       0       0       0       0       0       0       0       
      +0       0       0       0       0       0       0       0       0       0       0       0       0       0       0       
      +0       0       0       0       0       0       0       0       0       0
  2364 ;;Total ram usage:        3 bytes
  2365 ;; Hardware stack levels used: 1
  2366 ;; Hardware stack levels required when called: 7
  2367 ;; This function calls:
  2368 ;;		Nothing
  2369 ;; This function is called by:
  2370 ;;		_CAN1_ErrorNotificationInterruptEnable
  2371 ;; This function uses a non-reentrant model
  2372 ;;
  2373                           
  2374                           	psect	text23
  2375  004A50                     __ptext23:
  2376                           	callstack 0
  2377  004A50                     _CAN1_SetBusErrorInterruptHandler:
  2378                           	callstack 117
  2379  004A50                     
  2380                           ;mcc_generated_files/can1.c: 641: void CAN1_SetBusErrorInterruptHandler(void (*handler)(
      +                          void));mcc_generated_files/can1.c: 642: {;mcc_generated_files/can1.c: 643:     CAN1_BusE
      +                          rrorHandler = handler;
  2381  004A50  C575  F56C         	movff	CAN1_SetBusErrorInterruptHandler@handler,_CAN1_BusErrorHandler
  2382  004A54  C576  F56D         	movff	CAN1_SetBusErrorInterruptHandler@handler+1,_CAN1_BusErrorHandler+1
  2383  004A58  C577  F56E         	movff	CAN1_SetBusErrorInterruptHandler@handler+2,_CAN1_BusErrorHandler+2
  2384  004A5C  0012               	return		;funcret
  2385  004A5E                     __end_of_CAN1_SetBusErrorInterruptHandler:
  2386                           	callstack 0
  2387                           
  2388 ;; *************** function _CAN1_BitRateConfiguration *****************
  2389 ;; Defined at:
  2390 ;;		line 215 in file "mcc_generated_files/can1.c"
  2391 ;; Parameters:    Size  Location     Type
  2392 ;;		None
  2393 ;; Auto vars:     Size  Location     Type
  2394 ;;		None
  2395 ;; Return value:  Size  Location     Type
  2396 ;;                  1    wreg      void 
  2397 ;; Registers used:
  2398 ;;		wreg, status,2
  2399 ;; Tracked objects:
  2400 ;;		On entry : 0/0
  2401 ;;		On exit  : 0/0
  2402 ;;		Unchanged: 0/0
  2403 ;; Data sizes:     COMRAM   BANK5   BANK6   BANK7   BANK8   BANK9  BANK10  BANK11  BANK12  BANK13  BANK14  BANK15  BANK1
      +6  BANK17  BANK18  BANK19  BANK20  BANK21  BANK22  BANK23  BANK24  BANK25  BANK26  BANK27  BANK28  BANK29  BANK30  BANK3
      +1  BANK32  BANK33  BANK34  BANK35  BANK36  BANK37  BANK38  BANK39  BANK40  BANK41  BANK42  BANK43  BANK44  BANK45  BANK4
      +6  BANK47  BANK48  BANK49  BANK50  BANK51  BANK52  BANK53  BANK54  BANK55
  2404 ;;      Params:         0       0       0       0       0       0       0       0       0       0       0       0       
      +0       0       0       0       0       0       0       0       0       0       0       0       0       0       0       
      +0       0       0       0       0       0       0       0       0       0       0       0       0       0       0       
      +0       0       0       0       0       0       0       0       0       0
  2405 ;;      Locals:         0       0       0       0       0       0       0       0       0       0       0       0       
      +0       0       0       0       0       0       0       0       0       0       0       0       0       0       0       
      +0       0       0       0       0       0       0       0       0       0       0       0       0       0       0       
      +0       0       0       0       0       0       0       0       0       0
  2406 ;;      Temps:          0       0       0       0       0       0       0       0       0       0       0       0       
      +0       0       0       0       0       0       0       0       0       0       0       0       0       0       0       
      +0       0       0       0       0       0       0       0       0       0       0       0       0       0       0       
      +0       0       0       0       0       0       0       0       0       0
  2407 ;;      Totals:         0       0       0       0       0       0       0       0       0       0       0       0       
      +0       0       0       0       0       0       0       0       0       0       0       0       0       0       0       
      +0       0       0       0       0       0       0       0       0       0       0       0       0       0       0       
      +0       0       0       0       0       0       0       0       0       0
  2408 ;;Total ram usage:        0 bytes
  2409 ;; Hardware stack levels used: 1
  2410 ;; Hardware stack levels required when called: 7
  2411 ;; This function calls:
  2412 ;;		Nothing
  2413 ;; This function is called by:
  2414 ;;		_CAN1_Initialize
  2415 ;; This function uses a non-reentrant model
  2416 ;;
  2417                           
  2418                           	psect	text24
  2419  0049BA                     __ptext24:
  2420                           	callstack 0
  2421  0049BA                     _CAN1_BitRateConfiguration:
  2422                           	callstack 118
  2423  0049BA                     
  2424                           ;mcc_generated_files/can1.c: 218:     C1NBTCFGL = 0x4F;
  2425  0049BA  0E4F               	movlw	79
  2426  0049BC  0101               	movlb	1	; () banked
  2427  0049BE  6F04               	movwf	4,b	;volatile
  2428                           
  2429                           ;mcc_generated_files/can1.c: 221:     C1NBTCFGH = 0x4F;
  2430  0049C0  0E4F               	movlw	79
  2431  0049C2  6F05               	movwf	5,b	;volatile
  2432                           
  2433                           ;mcc_generated_files/can1.c: 224:     C1NBTCFGU = 0xEE;
  2434  0049C4  0EEE               	movlw	238
  2435  0049C6  6F06               	movwf	6,b	;volatile
  2436                           
  2437                           ;mcc_generated_files/can1.c: 227:     C1NBTCFGT = 0x00;
  2438  0049C8  0E00               	movlw	0
  2439  0049CA  6F07               	movwf	7,b	;volatile
  2440  0049CC                     
  2441                           ; BSR set to: 1
  2442  0049CC  0012               	return		;funcret
  2443  0049CE                     __end_of_CAN1_BitRateConfiguration:
  2444                           	callstack 0
  2445                           
  2446 ;; *************** function _INTERRUPT_InterruptManager *****************
  2447 ;; Defined at:
  2448 ;;		line 58 in file "mcc_generated_files/interrupt_manager.c"
  2449 ;; Parameters:    Size  Location     Type
  2450 ;;		None
  2451 ;; Auto vars:     Size  Location     Type
  2452 ;;		None
  2453 ;; Return value:  Size  Location     Type
  2454 ;;                  1    wreg      void 
  2455 ;; Registers used:
  2456 ;;		wreg, fsr1l, fsr1h, fsr2l, fsr2h, status,2, status,0, pclath, tosl, tblptrl, tblptrh, tblptru, prodl, prodh, cstack
  2457 ;; Tracked objects:
  2458 ;;		On entry : 0/0
  2459 ;;		On exit  : 0/0
  2460 ;;		Unchanged: 0/0
  2461 ;; Data sizes:     COMRAM   BANK5   BANK6   BANK7   BANK8   BANK9  BANK10  BANK11  BANK12  BANK13  BANK14  BANK15  BANK1
      +6  BANK17  BANK18  BANK19  BANK20  BANK21  BANK22  BANK23  BANK24  BANK25  BANK26  BANK27  BANK28  BANK29  BANK30  BANK3
      +1  BANK32  BANK33  BANK34  BANK35  BANK36  BANK37  BANK38  BANK39  BANK40  BANK41  BANK42  BANK43  BANK44  BANK45  BANK4
      +6  BANK47  BANK48  BANK49  BANK50  BANK51  BANK52  BANK53  BANK54  BANK55
  2462 ;;      Params:         0       0       0       0       0       0       0       0       0       0       0       0       
      +0       0       0       0       0       0       0       0       0       0       0       0       0       0       0       
      +0       0       0       0       0       0       0       0       0       0       0       0       0       0       0       
      +0       0       0       0       0       0       0       0       0       0
  2463 ;;      Locals:         0       0       0       0       0       0       0       0       0       0       0       0       
      +0       0       0       0       0       0       0       0       0       0       0       0       0       0       0       
      +0       0       0       0       0       0       0       0       0       0       0       0       0       0       0       
      +0       0       0       0       0       0       0       0       0       0
  2464 ;;      Temps:          4       0       0       0       0       0       0       0       0       0       0       0       
      +0       0       0       0       0       0       0       0       0       0       0       0       0       0       0       
      +0       0       0       0       0       0       0       0       0       0       0       0       0       0       0       
      +0       0       0       0       0       0       0       0       0       0
  2465 ;;      Totals:         4       0       0       0       0       0       0       0       0       0       0       0       
      +0       0       0       0       0       0       0       0       0       0       0       0       0       0       0       
      +0       0       0       0       0       0       0       0       0       0       0       0       0       0       0       
      +0       0       0       0       0       0       0       0       0       0
  2466 ;;Total ram usage:        4 bytes
  2467 ;; Hardware stack levels used: 1
  2468 ;; Hardware stack levels required when called: 6
  2469 ;; This function calls:
  2470 ;;		_CAN1_ISR
  2471 ;;		_CAN1_RXI_ISR
  2472 ;;		_TU16A_ISR
  2473 ;; This function is called by:
  2474 ;;		Interrupt level 2
  2475 ;; This function uses a non-reentrant model
  2476 ;;
  2477                           
  2478                           	psect	text25
  2479  0042B4                     __ptext25:
  2480                           	callstack 0
  2481  0042B4                     _INTERRUPT_InterruptManager:
  2482                           	callstack 117
  2483                           
  2484                           ; BSR set to: 1
  2485                           ;incstack = 0
  2486  0042B4  0061 F3D8  F541    	movff	tblptrl,??_INTERRUPT_InterruptManager
  2487  0042BA  0061 F3DC  F542    	movff	tblptrh,??_INTERRUPT_InterruptManager+1
  2488  0042C0  0061 F3E0  F543    	movff	tblptru,??_INTERRUPT_InterruptManager+2
  2489  0042C6  0061 F3D4  F544    	movff	tablat,??_INTERRUPT_InterruptManager+3
  2490  0042CC                     
  2491                           ;mcc_generated_files/interrupt_manager.c: 61:     if(PIE0bits.TU16AIE == 1 && PIR0bits.T
      +                          U16AIF == 1)
  2492  0042CC  A89E               	btfss	158,4,c	;volatile
  2493  0042CE  EF6B  F021         	goto	i2u195_41
  2494  0042D2  EF6D  F021         	goto	i2u195_40
  2495  0042D6                     i2u195_41:
  2496  0042D6  EF78  F021         	goto	i2l84
  2497  0042DA                     i2u195_40:
  2498  0042DA  A8AE               	btfss	174,4,c	;volatile
  2499  0042DC  EF72  F021         	goto	i2u196_41
  2500  0042E0  EF74  F021         	goto	i2u196_40
  2501  0042E4                     i2u196_41:
  2502  0042E4  EF78  F021         	goto	i2l84
  2503  0042E8                     i2u196_40:
  2504  0042E8                     
  2505                           ;mcc_generated_files/interrupt_manager.c: 62:     {;mcc_generated_files/interrupt_manage
      +                          r.c: 63:         TU16A_ISR();
  2506  0042E8  ECCD  F023         	call	_TU16A_ISR	;wreg free
  2507                           
  2508                           ;mcc_generated_files/interrupt_manager.c: 64:     }
  2509  0042EC  EF9C  F021         	goto	i2l90
  2510  0042F0                     i2l84:
  2511  0042F0  AC9E               	btfss	158,6,c	;volatile
  2512  0042F2  EF7D  F021         	goto	i2u197_41
  2513  0042F6  EF7F  F021         	goto	i2u197_40
  2514  0042FA                     i2u197_41:
  2515  0042FA  EF8A  F021         	goto	i2l86
  2516  0042FE                     i2u197_40:
  2517  0042FE  ACAE               	btfss	174,6,c	;volatile
  2518  004300  EF84  F021         	goto	i2u198_41
  2519  004304  EF86  F021         	goto	i2u198_40
  2520  004308                     i2u198_41:
  2521  004308  EF8A  F021         	goto	i2l86
  2522  00430C                     i2u198_40:
  2523  00430C                     
  2524                           ;mcc_generated_files/interrupt_manager.c: 66:     {;mcc_generated_files/interrupt_manage
      +                          r.c: 67:         CAN1_ISR();
  2525  00430C  EC60  F01F         	call	_CAN1_ISR	;wreg free
  2526                           
  2527                           ;mcc_generated_files/interrupt_manager.c: 68:     }
  2528  004310  EF9C  F021         	goto	i2l90
  2529  004314                     i2l86:
  2530  004314  A8A2               	btfss	162,4,c	;volatile
  2531  004316  EF8F  F021         	goto	i2u199_41
  2532  00431A  EF91  F021         	goto	i2u199_40
  2533  00431E                     i2u199_41:
  2534  00431E  EF9C  F021         	goto	i2l87
  2535  004322                     i2u199_40:
  2536  004322  A8B2               	btfss	178,4,c	;volatile
  2537  004324  EF96  F021         	goto	i2u200_41
  2538  004328  EF98  F021         	goto	i2u200_40
  2539  00432C                     i2u200_41:
  2540  00432C  EF9C  F021         	goto	i2l87
  2541  004330                     i2u200_40:
  2542  004330                     
  2543                           ;mcc_generated_files/interrupt_manager.c: 70:     {;mcc_generated_files/interrupt_manage
      +                          r.c: 71:         CAN1_RXI_ISR();
  2544  004330  EC3B  F024         	call	_CAN1_RXI_ISR	;wreg free
  2545                           
  2546                           ;mcc_generated_files/interrupt_manager.c: 72:     }
  2547  004334  EF9C  F021         	goto	i2l90
  2548  004338                     i2l87:
  2549  004338                     i2l90:
  2550  004338  0061  F510  F4F5   	movff	??_INTERRUPT_InterruptManager+3,tablat
  2551  00433E  0061  F50C  F4F8   	movff	??_INTERRUPT_InterruptManager+2,tblptru
  2552  004344  0061  F508  F4F7   	movff	??_INTERRUPT_InterruptManager+1,tblptrh
  2553  00434A  0061  F504  F4F6   	movff	??_INTERRUPT_InterruptManager,tblptrl
  2554  004350  0011               	retfie		f
  2555  004352                     __end_of_INTERRUPT_InterruptManager:
  2556                           	callstack 0
  2557                           
  2558 ;; *************** function _TU16A_ISR *****************
  2559 ;; Defined at:
  2560 ;;		line 228 in file "mcc_generated_files/tu16a.c"
  2561 ;; Parameters:    Size  Location     Type
  2562 ;;		None
  2563 ;; Auto vars:     Size  Location     Type
  2564 ;;		None
  2565 ;; Return value:  Size  Location     Type
  2566 ;;                  1    wreg      void 
  2567 ;; Registers used:
  2568 ;;		wreg, fsr1l, fsr1h, fsr2l, fsr2h, status,2, status,0, pclath, tosl, tblptrl, tblptrh, tblptru, prodl, prodh, cstack
  2569 ;; Tracked objects:
  2570 ;;		On entry : 0/0
  2571 ;;		On exit  : 0/0
  2572 ;;		Unchanged: 0/0
  2573 ;; Data sizes:     COMRAM   BANK5   BANK6   BANK7   BANK8   BANK9  BANK10  BANK11  BANK12  BANK13  BANK14  BANK15  BANK1
      +6  BANK17  BANK18  BANK19  BANK20  BANK21  BANK22  BANK23  BANK24  BANK25  BANK26  BANK27  BANK28  BANK29  BANK30  BANK3
      +1  BANK32  BANK33  BANK34  BANK35  BANK36  BANK37  BANK38  BANK39  BANK40  BANK41  BANK42  BANK43  BANK44  BANK45  BANK4
      +6  BANK47  BANK48  BANK49  BANK50  BANK51  BANK52  BANK53  BANK54  BANK55
  2574 ;;      Params:         0       0       0       0       0       0       0       0       0       0       0       0       
      +0       0       0       0       0       0       0       0       0       0       0       0       0       0       0       
      +0       0       0       0       0       0       0       0       0       0       0       0       0       0       0       
      +0       0       0       0       0       0       0       0       0       0
  2575 ;;      Locals:         0       0       0       0       0       0       0       0       0       0       0       0       
      +0       0       0       0       0       0       0       0       0       0       0       0       0       0       0       
      +0       0       0       0       0       0       0       0       0       0       0       0       0       0       0       
      +0       0       0       0       0       0       0       0       0       0
  2576 ;;      Temps:          0       0       0       0       0       0       0       0       0       0       0       0       
      +0       0       0       0       0       0       0       0       0       0       0       0       0       0       0       
      +0       0       0       0       0       0       0       0       0       0       0       0       0       0       0       
      +0       0       0       0       0       0       0       0       0       0
  2577 ;;      Totals:         0       0       0       0       0       0       0       0       0       0       0       0       
      +0       0       0       0       0       0       0       0       0       0       0       0       0       0       0       
      +0       0       0       0       0       0       0       0       0       0       0       0       0       0       0       
      +0       0       0       0       0       0       0       0       0       0
  2578 ;;Total ram usage:        0 bytes
  2579 ;; Hardware stack levels used: 1
  2580 ;; Hardware stack levels required when called: 4
  2581 ;; This function calls:
  2582 ;;		Absolute function
  2583 ;;		_TU16A__C1_TransmitInterruptHandler
  2584 ;; This function is called by:
  2585 ;;		_INTERRUPT_InterruptManager
  2586 ;; This function uses a non-reentrant model
  2587 ;;
  2588                           
  2589                           	psect	text26
  2590  00479A                     __ptext26:
  2591                           	callstack 0
  2592  00479A                     _TU16A_ISR:
  2593                           	callstack 118
  2594  00479A                     
  2595                           ;mcc_generated_files/tu16a.c: 230:     if(TU16ACON1bits.PRIF == 1)
  2596  00479A  0103               	movlb	3	; () banked
  2597  00479C  A588               	btfss	136,2,b	;volatile
  2598  00479E  EFD3  F023         	goto	i2u174_41
  2599  0047A2  EFD5  F023         	goto	i2u174_40
  2600  0047A6                     i2u174_41:
  2601  0047A6  EFD6  F023         	goto	i2l2555
  2602  0047AA                     i2u174_40:
  2603  0047AA                     
  2604                           ; BSR set to: 3
  2605                           ;mcc_generated_files/tu16a.c: 231:     {;mcc_generated_files/tu16a.c: 232:         TU16A
      +                          CON1bits.PRIF = 0;
  2606  0047AA  9588               	bcf	136,2,b	;volatile
  2607  0047AC                     i2l2555:
  2608                           
  2609                           ; BSR set to: 3
  2610                           ;mcc_generated_files/tu16a.c: 235:     if(TU16A_InterruptHandler)
  2611  0047AC  5058               	movf	_TU16A_InterruptHandler^(0+1280),w,c
  2612  0047AE  1059               	iorwf	(_TU16A_InterruptHandler+1)^(0+1280),w,c
  2613  0047B0  105A               	iorwf	(_TU16A_InterruptHandler+2)^(0+1280),w,c
  2614  0047B2  B4D8               	btfsc	status,2,c
  2615  0047B4  EFDE  F023         	goto	i2u175_41
  2616  0047B8  EFE0  F023         	goto	i2u175_40
  2617  0047BC                     i2u175_41:
  2618  0047BC  EFED  F023         	goto	i2l596
  2619  0047C0                     i2u175_40:
  2620  0047C0                     
  2621                           ; BSR set to: 3
  2622                           ;mcc_generated_files/tu16a.c: 236:     {;mcc_generated_files/tu16a.c: 237:         TU16A
      +                          _InterruptHandler();
  2623  0047C0  D802               	call	i2u176_48
  2624  0047C2  EFED  F023         	goto	i2u176_49
  2625  0047C6                     i2u176_48:
  2626  0047C6  0005               	push	
  2627  0047C8  6EFA               	movwf	pclath,c
  2628  0047CA  5058               	movf	_TU16A_InterruptHandler^(0+1280),w,c
  2629  0047CC  6EFD               	movwf	tosl,c
  2630  0047CE  5059               	movf	(_TU16A_InterruptHandler+1)^(0+1280),w,c
  2631  0047D0  6EFE               	movwf	tosh,c
  2632  0047D2  505A               	movf	(_TU16A_InterruptHandler+2)^(0+1280),w,c
  2633  0047D4  6EFF               	movwf	tosu,c
  2634  0047D6  50FA               	movf	pclath,w,c
  2635  0047D8  0012               	return		;indir
  2636  0047DA                     i2u176_49:
  2637  0047DA                     i2l596:
  2638  0047DA  0012               	return		;funcret
  2639  0047DC                     __end_of_TU16A_ISR:
  2640                           	callstack 0
  2641                           
  2642 ;; *************** function _TU16A__C1_TransmitInterruptHandler *****************
  2643 ;; Defined at:
  2644 ;;		line 29 in file "interrupt_handler_function.c"
  2645 ;; Parameters:    Size  Location     Type
  2646 ;;		None
  2647 ;; Auto vars:     Size  Location     Type
  2648 ;;  Transmit_Dat    8   29[COMRAM] unsigned char [8]
  2649 ;;  Transmission    7   37[COMRAM] struct .
  2650 ;; Return value:  Size  Location     Type
  2651 ;;                  1    wreg      void 
  2652 ;; Registers used:
  2653 ;;		wreg, fsr1l, fsr1h, fsr2l, fsr2h, status,2, status,0, tblptrl, tblptrh, tblptru, prodl, prodh, cstack
  2654 ;; Tracked objects:
  2655 ;;		On entry : 0/0
  2656 ;;		On exit  : 0/0
  2657 ;;		Unchanged: 0/0
  2658 ;; Data sizes:     COMRAM   BANK5   BANK6   BANK7   BANK8   BANK9  BANK10  BANK11  BANK12  BANK13  BANK14  BANK15  BANK1
      +6  BANK17  BANK18  BANK19  BANK20  BANK21  BANK22  BANK23  BANK24  BANK25  BANK26  BANK27  BANK28  BANK29  BANK30  BANK3
      +1  BANK32  BANK33  BANK34  BANK35  BANK36  BANK37  BANK38  BANK39  BANK40  BANK41  BANK42  BANK43  BANK44  BANK45  BANK4
      +6  BANK47  BANK48  BANK49  BANK50  BANK51  BANK52  BANK53  BANK54  BANK55
  2659 ;;      Params:         0       0       0       0       0       0       0       0       0       0       0       0       
      +0       0       0       0       0       0       0       0       0       0       0       0       0       0       0       
      +0       0       0       0       0       0       0       0       0       0       0       0       0       0       0       
      +0       0       0       0       0       0       0       0       0       0
  2660 ;;      Locals:        15       0       0       0       0       0       0       0       0       0       0       0       
      +0       0       0       0       0       0       0       0       0       0       0       0       0       0       0       
      +0       0       0       0       0       0       0       0       0       0       0       0       0       0       0       
      +0       0       0       0       0       0       0       0       0       0
  2661 ;;      Temps:          1       0       0       0       0       0       0       0       0       0       0       0       
      +0       0       0       0       0       0       0       0       0       0       0       0       0       0       0       
      +0       0       0       0       0       0       0       0       0       0       0       0       0       0       0       
      +0       0       0       0       0       0       0       0       0       0
  2662 ;;      Totals:        16       0       0       0       0       0       0       0       0       0       0       0       
      +0       0       0       0       0       0       0       0       0       0       0       0       0       0       0       
      +0       0       0       0       0       0       0       0       0       0       0       0       0       0       0       
      +0       0       0       0       0       0       0       0       0       0
  2663 ;;Total ram usage:       16 bytes
  2664 ;; Hardware stack levels used: 1
  2665 ;; Hardware stack levels required when called: 3
  2666 ;; This function calls:
  2667 ;;		_CAN1_Transmit
  2668 ;;		_CAN1_TransmitFIFOStatusGet
  2669 ;; This function is called by:
  2670 ;;		_TU16A_Initialize
  2671 ;;		_TU16A_ISR
  2672 ;; This function uses a non-reentrant model
  2673 ;;
  2674                           
  2675                           	psect	text27
  2676  0045E0                     __ptext27:
  2677                           	callstack 0
  2678  0045E0                     _TU16A__C1_TransmitInterruptHandler:
  2679                           	callstack 118
  2680  0045E0                     
  2681                           ;interrupt_handler_function.c: 30:     CAN_MSG_OBJ Transmission;;interrupt_handler_funct
      +                          ion.c: 31:     uint8_t Transmit_Data[8]={0x00,0x11,0x22,0x33,0x44,0x55,0x66,0x77};
  2682  0045E0  EE21  F150         	lfsr	2,TU16A__C1_TransmitInterruptHandler@F22653
  2683  0045E4  EE11  F11E         	lfsr	1,TU16A__C1_TransmitInterruptHandler@Transmit_Data
  2684  0045E8  0E07               	movlw	7
  2685  0045EA                     i2u159_41:
  2686  0045EA  C4DB F4E3          	movff	plusw2,plusw1
  2687  0045EE  06E8               	decf	wreg,f,c
  2688  0045F0  E2FC               	bc	i2u159_41
  2689  0045F2                     
  2690                           ;interrupt_handler_function.c: 33:     Transmission.field.brs=CAN_NON_BRS_MODE;
  2691  0045F2  9E2A               	bcf	(TU16A__C1_TransmitInterruptHandler@Transmission+4)^(0+1280),7,c
  2692  0045F4                     
  2693                           ;interrupt_handler_function.c: 34:     Transmission.field.dlc=DLC_8;
  2694  0045F4  502A               	movf	(TU16A__C1_TransmitInterruptHandler@Transmission+4)^(0+1280),w,c
  2695  0045F6  0BC3               	andlw	-61
  2696  0045F8  0920               	iorlw	32
  2697  0045FA  6E2A               	movwf	(TU16A__C1_TransmitInterruptHandler@Transmission+4)^(0+1280),c
  2698  0045FC                     
  2699                           ;interrupt_handler_function.c: 35:     Transmission.field.formatType=CAN_2_0_FORMAT;
  2700  0045FC  9C2A               	bcf	(TU16A__C1_TransmitInterruptHandler@Transmission+4)^(0+1280),6,c
  2701  0045FE                     
  2702                           ;interrupt_handler_function.c: 36:     Transmission.field.frameType=CAN_FRAME_DATA;
  2703  0045FE  922A               	bcf	(TU16A__C1_TransmitInterruptHandler@Transmission+4)^(0+1280),1,c
  2704  004600                     
  2705                           ;interrupt_handler_function.c: 37:     Transmission.field.idType=CAN_FRAME_STD;
  2706  004600  902A               	bcf	(TU16A__C1_TransmitInterruptHandler@Transmission+4)^(0+1280),0,c
  2707  004602                     
  2708                           ;interrupt_handler_function.c: 38:     Transmission.msgId=0x585;
  2709  004602  0E85               	movlw	133
  2710  004604  6E26               	movwf	TU16A__C1_TransmitInterruptHandler@Transmission^(0+1280),c
  2711  004606  0E05               	movlw	5
  2712  004608  6E27               	movwf	(TU16A__C1_TransmitInterruptHandler@Transmission+1)^(0+1280),c
  2713  00460A  0E00               	movlw	0
  2714  00460C  6E28               	movwf	(TU16A__C1_TransmitInterruptHandler@Transmission+2)^(0+1280),c
  2715  00460E  0E00               	movlw	0
  2716  004610  6E29               	movwf	(TU16A__C1_TransmitInterruptHandler@Transmission+3)^(0+1280),c
  2717  004612                     
  2718                           ;interrupt_handler_function.c: 39:     Transmission.data=Transmit_Data;
  2719  004612  0E1E               	movlw	low TU16A__C1_TransmitInterruptHandler@Transmit_Data
  2720  004614  6E2B               	movwf	(TU16A__C1_TransmitInterruptHandler@Transmission+5)^(0+1280),c
  2721  004616  0E05               	movlw	high TU16A__C1_TransmitInterruptHandler@Transmit_Data
  2722  004618  6E2C               	movwf	(TU16A__C1_TransmitInterruptHandler@Transmission+6)^(0+1280),c
  2723  00461A                     
  2724                           ;interrupt_handler_function.c: 40:     if(CAN_TX_FIFO_AVAILABLE == (CAN1_TransmitFIFOSta
      +                          tusGet(TXQ) & CAN_TX_FIFO_AVAILABLE))
  2725  00461A  0E00               	movlw	0
  2726  00461C  EC65  F024         	call	_CAN1_TransmitFIFOStatusGet
  2727  004620  6E1D               	movwf	??_TU16A__C1_TransmitInterruptHandler^(0+1280),c
  2728  004622  A01D               	btfss	??_TU16A__C1_TransmitInterruptHandler^(0+1280),0,c
  2729  004624  EF16  F023         	goto	i2u160_41
  2730  004628  EF18  F023         	goto	i2u160_40
  2731  00462C                     i2u160_41:
  2732  00462C  EF1F  F023         	goto	i2l633
  2733  004630                     i2u160_40:
  2734  004630                     
  2735                           ;interrupt_handler_function.c: 41:                 {;interrupt_handler_function.c: 42:  
      +                                             CAN1_Transmit(TXQ, &Transmission);
  2736  004630  0E26               	movlw	low TU16A__C1_TransmitInterruptHandler@Transmission
  2737  004632  6E17               	movwf	CAN1_Transmit@txCanMsg^(0+1280),c
  2738  004634  0E05               	movlw	high TU16A__C1_TransmitInterruptHandler@Transmission
  2739  004636  6E18               	movwf	(CAN1_Transmit@txCanMsg+1)^(0+1280),c
  2740  004638  0E00               	movlw	0
  2741  00463A  EC40  F022         	call	_CAN1_Transmit
  2742  00463E                     i2l633:
  2743  00463E  0012               	return		;funcret
  2744  004640                     __end_of_TU16A__C1_TransmitInterruptHandler:
  2745                           	callstack 0
  2746                           
  2747 ;; *************** function _CAN1_RXI_ISR *****************
  2748 ;; Defined at:
  2749 ;;		line 725 in file "mcc_generated_files/can1.c"
  2750 ;; Parameters:    Size  Location     Type
  2751 ;;		None
  2752 ;; Auto vars:     Size  Location     Type
  2753 ;;		None
  2754 ;; Return value:  Size  Location     Type
  2755 ;;                  1    wreg      void 
  2756 ;; Registers used:
  2757 ;;		wreg, fsr1l, fsr1h, fsr2l, fsr2h, status,2, status,0, pclath, tosl, tblptrl, tblptrh, tblptru, prodl, prodh, cstack
  2758 ;; Tracked objects:
  2759 ;;		On entry : 0/0
  2760 ;;		On exit  : 0/0
  2761 ;;		Unchanged: 0/0
  2762 ;; Data sizes:     COMRAM   BANK5   BANK6   BANK7   BANK8   BANK9  BANK10  BANK11  BANK12  BANK13  BANK14  BANK15  BANK1
      +6  BANK17  BANK18  BANK19  BANK20  BANK21  BANK22  BANK23  BANK24  BANK25  BANK26  BANK27  BANK28  BANK29  BANK30  BANK3
      +1  BANK32  BANK33  BANK34  BANK35  BANK36  BANK37  BANK38  BANK39  BANK40  BANK41  BANK42  BANK43  BANK44  BANK45  BANK4
      +6  BANK47  BANK48  BANK49  BANK50  BANK51  BANK52  BANK53  BANK54  BANK55
  2763 ;;      Params:         0       0       0       0       0       0       0       0       0       0       0       0       
      +0       0       0       0       0       0       0       0       0       0       0       0       0       0       0       
      +0       0       0       0       0       0       0       0       0       0       0       0       0       0       0       
      +0       0       0       0       0       0       0       0       0       0
  2764 ;;      Locals:         0       0       0       0       0       0       0       0       0       0       0       0       
      +0       0       0       0       0       0       0       0       0       0       0       0       0       0       0       
      +0       0       0       0       0       0       0       0       0       0       0       0       0       0       0       
      +0       0       0       0       0       0       0       0       0       0
  2765 ;;      Temps:          0       0       0       0       0       0       0       0       0       0       0       0       
      +0       0       0       0       0       0       0       0       0       0       0       0       0       0       0       
      +0       0       0       0       0       0       0       0       0       0       0       0       0       0       0       
      +0       0       0       0       0       0       0       0       0       0
  2766 ;;      Totals:         0       0       0       0       0       0       0       0       0       0       0       0       
      +0       0       0       0       0       0       0       0       0       0       0       0       0       0       0       
      +0       0       0       0       0       0       0       0       0       0       0       0       0       0       0       
      +0       0       0       0       0       0       0       0       0       0
  2767 ;;Total ram usage:        0 bytes
  2768 ;; Hardware stack levels used: 1
  2769 ;; Hardware stack levels required when called: 5
  2770 ;; This function calls:
  2771 ;;		Absolute function
  2772 ;;		_C1__ReceiveFIFO1NotEmptyHandler
  2773 ;; This function is called by:
  2774 ;;		_INTERRUPT_InterruptManager
  2775 ;; This function uses a non-reentrant model
  2776 ;;
  2777                           
  2778                           	psect	text28
  2779  004876                     __ptext28:
  2780                           	callstack 0
  2781  004876                     _CAN1_RXI_ISR:
  2782                           	callstack 117
  2783  004876                     
  2784                           ;mcc_generated_files/can1.c: 727:     if (1 == C1FIFOSTA1Lbits.TFNRFNIF)
  2785  004876  0101               	movlb	1	; () banked
  2786  004878  A160               	btfss	96,0,b	;volatile
  2787  00487A  EF41  F024         	goto	i2u193_41
  2788  00487E  EF43  F024         	goto	i2u193_40
  2789  004882                     i2u193_41:
  2790  004882  EF50  F024         	goto	i2l478
  2791  004886                     i2u193_40:
  2792  004886                     
  2793                           ; BSR set to: 1
  2794                           ;mcc_generated_files/can1.c: 728:     {;mcc_generated_files/can1.c: 729:         CAN1_FI
      +                          FO1NotEmptyHandler();
  2795  004886  D802               	call	i2u194_48
  2796  004888  EF50  F024         	goto	i2u194_49
  2797  00488C                     i2u194_48:
  2798  00488C  0005               	push	
  2799  00488E  6EFA               	movwf	pclath,c
  2800  004890  5045               	movf	_CAN1_FIFO1NotEmptyHandler^(0+1280),w,c
  2801  004892  6EFD               	movwf	tosl,c
  2802  004894  5046               	movf	(_CAN1_FIFO1NotEmptyHandler+1)^(0+1280),w,c
  2803  004896  6EFE               	movwf	tosh,c
  2804  004898  5047               	movf	(_CAN1_FIFO1NotEmptyHandler+2)^(0+1280),w,c
  2805  00489A  6EFF               	movwf	tosu,c
  2806  00489C  50FA               	movf	pclath,w,c
  2807  00489E  0012               	return		;indir
  2808  0048A0                     i2u194_49:
  2809  0048A0                     i2l478:
  2810  0048A0  0012               	return		;funcret
  2811  0048A2                     __end_of_CAN1_RXI_ISR:
  2812                           	callstack 0
  2813                           
  2814 ;; *************** function _C1__ReceiveFIFO1NotEmptyHandler *****************
  2815 ;; Defined at:
  2816 ;;		line 47 in file "interrupt_handler_function.c"
  2817 ;; Parameters:    Size  Location     Type
  2818 ;;		None
  2819 ;; Auto vars:     Size  Location     Type
  2820 ;;  data_Out        8   41[COMRAM] unsigned char [8]
  2821 ;;  Return_Messa    7   57[COMRAM] struct .
  2822 ;;  Currently_Pr    7   49[COMRAM] struct .
  2823 ;;  PID             1   56[COMRAM] unsigned char 
  2824 ;;  mode            1   40[COMRAM] unsigned char 
  2825 ;;  numBytes        1   39[COMRAM] unsigned char 
  2826 ;; Return value:  Size  Location     Type
  2827 ;;                  1    wreg      void 
  2828 ;; Registers used:
  2829 ;;		wreg, fsr1l, fsr1h, fsr2l, fsr2h, status,2, status,0, tblptrl, tblptrh, tblptru, prodl, prodh, cstack
  2830 ;; Tracked objects:
  2831 ;;		On entry : 0/0
  2832 ;;		On exit  : 0/0
  2833 ;;		Unchanged: 0/0
  2834 ;; Data sizes:     COMRAM   BANK5   BANK6   BANK7   BANK8   BANK9  BANK10  BANK11  BANK12  BANK13  BANK14  BANK15  BANK1
      +6  BANK17  BANK18  BANK19  BANK20  BANK21  BANK22  BANK23  BANK24  BANK25  BANK26  BANK27  BANK28  BANK29  BANK30  BANK3
      +1  BANK32  BANK33  BANK34  BANK35  BANK36  BANK37  BANK38  BANK39  BANK40  BANK41  BANK42  BANK43  BANK44  BANK45  BANK4
      +6  BANK47  BANK48  BANK49  BANK50  BANK51  BANK52  BANK53  BANK54  BANK55
  2835 ;;      Params:         0       0       0       0       0       0       0       0       0       0       0       0       
      +0       0       0       0       0       0       0       0       0       0       0       0       0       0       0       
      +0       0       0       0       0       0       0       0       0       0       0       0       0       0       0       
      +0       0       0       0       0       0       0       0       0       0
  2836 ;;      Locals:        25       0       0       0       0       0       0       0       0       0       0       0       
      +0       0       0       0       0       0       0       0       0       0       0       0       0       0       0       
      +0       0       0       0       0       0       0       0       0       0       0       0       0       0       0       
      +0       0       0       0       0       0       0       0       0       0
  2837 ;;      Temps:          1       0       0       0       0       0       0       0       0       0       0       0       
      +0       0       0       0       0       0       0       0       0       0       0       0       0       0       0       
      +0       0       0       0       0       0       0       0       0       0       0       0       0       0       0       
      +0       0       0       0       0       0       0       0       0       0
  2838 ;;      Totals:        26       0       0       0       0       0       0       0       0       0       0       0       
      +0       0       0       0       0       0       0       0       0       0       0       0       0       0       0       
      +0       0       0       0       0       0       0       0       0       0       0       0       0       0       0       
      +0       0       0       0       0       0       0       0       0       0
  2839 ;;Total ram usage:       26 bytes
  2840 ;; Hardware stack levels used: 1
  2841 ;; Hardware stack levels required when called: 4
  2842 ;; This function calls:
  2843 ;;		_CAN1_ReceiveFrom
  2844 ;;		_CAN1_ReceivedMessageCountGet
  2845 ;;		_CAN1_Transmit
  2846 ;;		_CAN1_TransmitFIFOStatusGet
  2847 ;; This function is called by:
  2848 ;;		_CAN1_RX_FIFO_Configuration
  2849 ;;		_CAN1_RXI_ISR
  2850 ;; This function uses a non-reentrant model
  2851 ;;
  2852                           
  2853                           	psect	text29
  2854  003C94                     __ptext29:
  2855                           	callstack 0
  2856  003C94                     _C1__ReceiveFIFO1NotEmptyHandler:
  2857                           	callstack 117
  2858  003C94                     
  2859                           ;interrupt_handler_function.c: 48:     TU16ACON0bits.ON = 0;
  2860  003C94  0103               	movlb	3	; () banked
  2861  003C96  9F87               	bcf	135,7,b	;volatile
  2862  003C98                     
  2863                           ; BSR set to: 3
  2864                           ;interrupt_handler_function.c: 53:     uint8_t PID=0;
  2865  003C98  0E00               	movlw	0
  2866  003C9A  6E39               	movwf	C1__ReceiveFIFO1NotEmptyHandler@PID^(0+1280),c
  2867                           
  2868                           ;interrupt_handler_function.c: 54:     uint8_t numBytes=0;
  2869  003C9C  0E00               	movlw	0
  2870  003C9E  6E28               	movwf	C1__ReceiveFIFO1NotEmptyHandler@numBytes^(0+1280),c
  2871  003CA0                     i2l2475:
  2872                           
  2873                           ;interrupt_handler_function.c: 56:     {;interrupt_handler_function.c: 57:         if(CA
      +                          N1_ReceivedMessageCountGet() > 0)
  2874  003CA0  ECF5  F020         	call	_CAN1_ReceivedMessageCountGet	;wreg free
  2875  003CA4  0900               	iorlw	0
  2876  003CA6  B4D8               	btfsc	status,2,c
  2877  003CA8  EF58  F01E         	goto	i2u161_41
  2878  003CAC  EF5A  F01E         	goto	i2u161_40
  2879  003CB0                     i2u161_41:
  2880  003CB0  EF50  F01E         	goto	i2l2475
  2881  003CB4                     i2u161_40:
  2882  003CB4                     
  2883                           ;interrupt_handler_function.c: 58:         {;interrupt_handler_function.c: 59:          
      +                             if(1 == CAN1_ReceiveFrom(FIFO1,&Currently_Processing))
  2884  003CB4  0E32               	movlw	low C1__ReceiveFIFO1NotEmptyHandler@Currently_Processing
  2885  003CB6  6E21               	movwf	CAN1_ReceiveFrom@rxCanMsg^(0+1280),c
  2886  003CB8  0E05               	movlw	high C1__ReceiveFIFO1NotEmptyHandler@Currently_Processing
  2887  003CBA  6E22               	movwf	(CAN1_ReceiveFrom@rxCanMsg+1)^(0+1280),c
  2888  003CBC  0E01               	movlw	1
  2889  003CBE  EC20  F023         	call	_CAN1_ReceiveFrom
  2890  003CC2  06E8               	decf	wreg,f,c
  2891  003CC4  A4D8               	btfss	status,2,c
  2892  003CC6  EF67  F01E         	goto	i2u162_41
  2893  003CCA  EF69  F01E         	goto	i2u162_40
  2894  003CCE                     i2u162_41:
  2895  003CCE  EF50  F01E         	goto	i2l2475
  2896  003CD2                     i2u162_40:
  2897  003CD2                     
  2898                           ;interrupt_handler_function.c: 65:     numBytes=Currently_Processing.data[0];
  2899  003CD2  0061  F4DC  F4D9   	movff	C1__ReceiveFIFO1NotEmptyHandler@Currently_Processing+5,fsr2l
  2900  003CD8  0061  F4E0  F4DA   	movff	C1__ReceiveFIFO1NotEmptyHandler@Currently_Processing+6,fsr2h
  2901  003CDE  50DF               	movf	indf2,w,c
  2902  003CE0  6E28               	movwf	C1__ReceiveFIFO1NotEmptyHandler@numBytes^(0+1280),c
  2903  003CE2                     
  2904                           ;interrupt_handler_function.c: 66:     mode=Currently_Processing.data[1];
  2905  003CE2  EE20 F001          	lfsr	2,1
  2906  003CE6  5037               	movf	(C1__ReceiveFIFO1NotEmptyHandler@Currently_Processing+5)^(0+1280),w,c
  2907  003CE8  26D9               	addwf	fsr2l,f,c
  2908  003CEA  5038               	movf	(C1__ReceiveFIFO1NotEmptyHandler@Currently_Processing+6)^(0+1280),w,c
  2909  003CEC  22DA               	addwfc	fsr2h,f,c
  2910  003CEE  50DF               	movf	indf2,w,c
  2911  003CF0  6E29               	movwf	C1__ReceiveFIFO1NotEmptyHandler@mode^(0+1280),c
  2912  003CF2                     
  2913                           ;interrupt_handler_function.c: 67:     PID=Currently_Processing.data[2];
  2914  003CF2  EE20 F002          	lfsr	2,2
  2915  003CF6  5037               	movf	(C1__ReceiveFIFO1NotEmptyHandler@Currently_Processing+5)^(0+1280),w,c
  2916  003CF8  26D9               	addwf	fsr2l,f,c
  2917  003CFA  5038               	movf	(C1__ReceiveFIFO1NotEmptyHandler@Currently_Processing+6)^(0+1280),w,c
  2918  003CFC  22DA               	addwfc	fsr2h,f,c
  2919  003CFE  50DF               	movf	indf2,w,c
  2920  003D00  6E39               	movwf	C1__ReceiveFIFO1NotEmptyHandler@PID^(0+1280),c
  2921  003D02                     
  2922                           ;interrupt_handler_function.c: 68:     Return_Message.msgId=0x7E;
  2923  003D02  0E7E               	movlw	126
  2924  003D04  6E3A               	movwf	C1__ReceiveFIFO1NotEmptyHandler@Return_Message^(0+1280),c
  2925  003D06  0E00               	movlw	0
  2926  003D08  6E3B               	movwf	(C1__ReceiveFIFO1NotEmptyHandler@Return_Message+1)^(0+1280),c
  2927  003D0A  0E00               	movlw	0
  2928  003D0C  6E3C               	movwf	(C1__ReceiveFIFO1NotEmptyHandler@Return_Message+2)^(0+1280),c
  2929  003D0E  0E00               	movlw	0
  2930  003D10  6E3D               	movwf	(C1__ReceiveFIFO1NotEmptyHandler@Return_Message+3)^(0+1280),c
  2931  003D12                     
  2932                           ;interrupt_handler_function.c: 69:     Return_Message.field.dlc=8;
  2933  003D12  503E               	movf	(C1__ReceiveFIFO1NotEmptyHandler@Return_Message+4)^(0+1280),w,c
  2934  003D14  0BC3               	andlw	-61
  2935  003D16  0920               	iorlw	32
  2936  003D18  6E3E               	movwf	(C1__ReceiveFIFO1NotEmptyHandler@Return_Message+4)^(0+1280),c
  2937  003D1A                     
  2938                           ;interrupt_handler_function.c: 70:     Return_Message.field.brs=CAN_NON_BRS_MODE;
  2939  003D1A  9E3E               	bcf	(C1__ReceiveFIFO1NotEmptyHandler@Return_Message+4)^(0+1280),7,c
  2940  003D1C                     
  2941                           ;interrupt_handler_function.c: 71:     Return_Message.field.idType=CAN_FRAME_STD;
  2942  003D1C  903E               	bcf	(C1__ReceiveFIFO1NotEmptyHandler@Return_Message+4)^(0+1280),0,c
  2943  003D1E                     
  2944                           ;interrupt_handler_function.c: 72:     Return_Message.field.formatType=CAN_2_0_FORMAT;
  2945  003D1E  9C3E               	bcf	(C1__ReceiveFIFO1NotEmptyHandler@Return_Message+4)^(0+1280),6,c
  2946  003D20                     
  2947                           ;interrupt_handler_function.c: 73:     Return_Message.field.frameType=CAN_FRAME_DATA;
  2948  003D20  923E               	bcf	(C1__ReceiveFIFO1NotEmptyHandler@Return_Message+4)^(0+1280),1,c
  2949  003D22                     
  2950                           ;interrupt_handler_function.c: 74:     data_Out[1]=mode+0x40;
  2951  003D22  5029               	movf	C1__ReceiveFIFO1NotEmptyHandler@mode^(0+1280),w,c
  2952  003D24  0F40               	addlw	64
  2953  003D26  6E2B               	movwf	(C1__ReceiveFIFO1NotEmptyHandler@data_Out+1)^(0+1280),c
  2954  003D28                     
  2955                           ;interrupt_handler_function.c: 75:     data_Out[2]=PID;
  2956  003D28  C539  F52C         	movff	C1__ReceiveFIFO1NotEmptyHandler@PID,C1__ReceiveFIFO1NotEmptyHandler@data_Out+2
  2957  003D2C                     
  2958                           ;interrupt_handler_function.c: 76:     data_Out[7]=0x55;
  2959  003D2C  0E55               	movlw	85
  2960  003D2E  6E31               	movwf	(C1__ReceiveFIFO1NotEmptyHandler@data_Out+7)^(0+1280),c
  2961  003D30                     
  2962                           ;interrupt_handler_function.c: 77:     if (mode!=0x01||numBytes!=2)
  2963  003D30  0429               	decf	C1__ReceiveFIFO1NotEmptyHandler@mode^(0+1280),w,c
  2964  003D32  A4D8               	btfss	status,2,c
  2965  003D34  EF9E  F01E         	goto	i2u163_41
  2966  003D38  EFA0  F01E         	goto	i2u163_40
  2967  003D3C                     i2u163_41:
  2968  003D3C  EF5F  F01F         	goto	i2l644
  2969  003D40                     i2u163_40:
  2970  003D40  0E02               	movlw	2
  2971  003D42  1828               	xorwf	C1__ReceiveFIFO1NotEmptyHandler@numBytes^(0+1280),w,c
  2972  003D44  B4D8               	btfsc	status,2,c
  2973  003D46  EFA7  F01E         	goto	i2u164_41
  2974  003D4A  EFA9  F01E         	goto	i2u164_40
  2975  003D4E                     i2u164_41:
  2976  003D4E  EFAB  F01E         	goto	i2l2511
  2977  003D52                     i2u164_40:
  2978  003D52  EF5F  F01F         	goto	i2l644
  2979  003D56                     i2l2511:
  2980  003D56  5039               	movf	C1__ReceiveFIFO1NotEmptyHandler@PID^(0+1280),w,c
  2981  003D58  A4D8               	btfss	status,2,c
  2982  003D5A  EFB1  F01E         	goto	i2u165_41
  2983  003D5E  EFB3  F01E         	goto	i2u165_40
  2984  003D62                     i2u165_41:
  2985  003D62  EFBF  F01E         	goto	i2l2515
  2986  003D66                     i2u165_40:
  2987  003D66                     
  2988                           ;interrupt_handler_function.c: 83:     {;interrupt_handler_function.c: 84:         data_
      +                          Out[0]=6;
  2989  003D66  0E06               	movlw	6
  2990  003D68  6E2A               	movwf	C1__ReceiveFIFO1NotEmptyHandler@data_Out^(0+1280),c
  2991                           
  2992                           ;interrupt_handler_function.c: 85:         data_Out[3]=0x18;
  2993  003D6A  0E18               	movlw	24
  2994  003D6C  6E2D               	movwf	(C1__ReceiveFIFO1NotEmptyHandler@data_Out+3)^(0+1280),c
  2995                           
  2996                           ;interrupt_handler_function.c: 86:         data_Out[4]=0x78;
  2997  003D6E  0E78               	movlw	120
  2998  003D70  6E2E               	movwf	(C1__ReceiveFIFO1NotEmptyHandler@data_Out+4)^(0+1280),c
  2999                           
  3000                           ;interrupt_handler_function.c: 87:         data_Out[5]=0x00;
  3001  003D72  0E00               	movlw	0
  3002  003D74  6E2F               	movwf	(C1__ReceiveFIFO1NotEmptyHandler@data_Out+5)^(0+1280),c
  3003                           
  3004                           ;interrupt_handler_function.c: 88:         data_Out[6]=0x00;
  3005  003D76  0E00               	movlw	0
  3006  003D78  6E30               	movwf	(C1__ReceiveFIFO1NotEmptyHandler@data_Out+6)^(0+1280),c
  3007                           
  3008                           ;interrupt_handler_function.c: 90:     }
  3009  003D7A  EF49  F01F         	goto	i2l2543
  3010  003D7E                     i2l2515:
  3011  003D7E  0E04               	movlw	4
  3012  003D80  1839               	xorwf	C1__ReceiveFIFO1NotEmptyHandler@PID^(0+1280),w,c
  3013  003D82  A4D8               	btfss	status,2,c
  3014  003D84  EFC6  F01E         	goto	i2u166_41
  3015  003D88  EFC8  F01E         	goto	i2u166_40
  3016  003D8C                     i2u166_41:
  3017  003D8C  EFD4  F01E         	goto	i2l2519
  3018  003D90                     i2u166_40:
  3019  003D90                     
  3020                           ;interrupt_handler_function.c: 93:     {;interrupt_handler_function.c: 94:         data_
      +                          Out[0]=3;
  3021  003D90  0E03               	movlw	3
  3022  003D92  6E2A               	movwf	C1__ReceiveFIFO1NotEmptyHandler@data_Out^(0+1280),c
  3023                           
  3024                           ;interrupt_handler_function.c: 95:         data_Out[3]=191;
  3025  003D94  0EBF               	movlw	191
  3026  003D96  6E2D               	movwf	(C1__ReceiveFIFO1NotEmptyHandler@data_Out+3)^(0+1280),c
  3027                           
  3028                           ;interrupt_handler_function.c: 96:         data_Out[4]=0x55;
  3029  003D98  0E55               	movlw	85
  3030  003D9A  6E2E               	movwf	(C1__ReceiveFIFO1NotEmptyHandler@data_Out+4)^(0+1280),c
  3031                           
  3032                           ;interrupt_handler_function.c: 97:         data_Out[5]=0x55;
  3033  003D9C  0E55               	movlw	85
  3034  003D9E  6E2F               	movwf	(C1__ReceiveFIFO1NotEmptyHandler@data_Out+5)^(0+1280),c
  3035                           
  3036                           ;interrupt_handler_function.c: 98:         data_Out[6]=0x55;
  3037  003DA0  0E55               	movlw	85
  3038  003DA2  6E30               	movwf	(C1__ReceiveFIFO1NotEmptyHandler@data_Out+6)^(0+1280),c
  3039                           
  3040                           ;interrupt_handler_function.c: 99:     }
  3041  003DA4  EF49  F01F         	goto	i2l2543
  3042  003DA8                     i2l2519:
  3043  003DA8  0E05               	movlw	5
  3044  003DAA  1839               	xorwf	C1__ReceiveFIFO1NotEmptyHandler@PID^(0+1280),w,c
  3045  003DAC  A4D8               	btfss	status,2,c
  3046  003DAE  EFDB  F01E         	goto	i2u167_41
  3047  003DB2  EFDD  F01E         	goto	i2u167_40
  3048  003DB6                     i2u167_41:
  3049  003DB6  EFE9  F01E         	goto	i2l2523
  3050  003DBA                     i2u167_40:
  3051  003DBA                     
  3052                           ;interrupt_handler_function.c: 102:     {;interrupt_handler_function.c: 103:         dat
      +                          a_Out[0]=3;
  3053  003DBA  0E03               	movlw	3
  3054  003DBC  6E2A               	movwf	C1__ReceiveFIFO1NotEmptyHandler@data_Out^(0+1280),c
  3055                           
  3056                           ;interrupt_handler_function.c: 104:         data_Out[3]=100;
  3057  003DBE  0E64               	movlw	100
  3058  003DC0  6E2D               	movwf	(C1__ReceiveFIFO1NotEmptyHandler@data_Out+3)^(0+1280),c
  3059                           
  3060                           ;interrupt_handler_function.c: 105:         data_Out[4]=0x55;
  3061  003DC2  0E55               	movlw	85
  3062  003DC4  6E2E               	movwf	(C1__ReceiveFIFO1NotEmptyHandler@data_Out+4)^(0+1280),c
  3063                           
  3064                           ;interrupt_handler_function.c: 106:         data_Out[5]=0x55;
  3065  003DC6  0E55               	movlw	85
  3066  003DC8  6E2F               	movwf	(C1__ReceiveFIFO1NotEmptyHandler@data_Out+5)^(0+1280),c
  3067                           
  3068                           ;interrupt_handler_function.c: 107:         data_Out[6]=0x55;
  3069  003DCA  0E55               	movlw	85
  3070  003DCC  6E30               	movwf	(C1__ReceiveFIFO1NotEmptyHandler@data_Out+6)^(0+1280),c
  3071                           
  3072                           ;interrupt_handler_function.c: 108:     }
  3073  003DCE  EF49  F01F         	goto	i2l2543
  3074  003DD2                     i2l2523:
  3075  003DD2  0E0A               	movlw	10
  3076  003DD4  1839               	xorwf	C1__ReceiveFIFO1NotEmptyHandler@PID^(0+1280),w,c
  3077  003DD6  A4D8               	btfss	status,2,c
  3078  003DD8  EFF0  F01E         	goto	i2u168_41
  3079  003DDC  EFF2  F01E         	goto	i2u168_40
  3080  003DE0                     i2u168_41:
  3081  003DE0  EFFE  F01E         	goto	i2l2527
  3082  003DE4                     i2u168_40:
  3083  003DE4                     
  3084                           ;interrupt_handler_function.c: 111:     {;interrupt_handler_function.c: 112:         dat
      +                          a_Out[0]=3;
  3085  003DE4  0E03               	movlw	3
  3086  003DE6  6E2A               	movwf	C1__ReceiveFIFO1NotEmptyHandler@data_Out^(0+1280),c
  3087                           
  3088                           ;interrupt_handler_function.c: 113:         data_Out[3]=150;
  3089  003DE8  0E96               	movlw	150
  3090  003DEA  6E2D               	movwf	(C1__ReceiveFIFO1NotEmptyHandler@data_Out+3)^(0+1280),c
  3091                           
  3092                           ;interrupt_handler_function.c: 114:         data_Out[4]=0x55;
  3093  003DEC  0E55               	movlw	85
  3094  003DEE  6E2E               	movwf	(C1__ReceiveFIFO1NotEmptyHandler@data_Out+4)^(0+1280),c
  3095                           
  3096                           ;interrupt_handler_function.c: 115:         data_Out[5]=0x55;
  3097  003DF0  0E55               	movlw	85
  3098  003DF2  6E2F               	movwf	(C1__ReceiveFIFO1NotEmptyHandler@data_Out+5)^(0+1280),c
  3099                           
  3100                           ;interrupt_handler_function.c: 116:         data_Out[6]=0x55;
  3101  003DF4  0E55               	movlw	85
  3102  003DF6  6E30               	movwf	(C1__ReceiveFIFO1NotEmptyHandler@data_Out+6)^(0+1280),c
  3103                           
  3104                           ;interrupt_handler_function.c: 117:     }
  3105  003DF8  EF49  F01F         	goto	i2l2543
  3106  003DFC                     i2l2527:
  3107  003DFC  0E0B               	movlw	11
  3108  003DFE  1839               	xorwf	C1__ReceiveFIFO1NotEmptyHandler@PID^(0+1280),w,c
  3109  003E00  A4D8               	btfss	status,2,c
  3110  003E02  EF05  F01F         	goto	i2u169_41
  3111  003E06  EF07  F01F         	goto	i2u169_40
  3112  003E0A                     i2u169_41:
  3113  003E0A  EF13  F01F         	goto	i2l2531
  3114  003E0E                     i2u169_40:
  3115  003E0E                     
  3116                           ;interrupt_handler_function.c: 120:     {;interrupt_handler_function.c: 121:         dat
      +                          a_Out[0]=3;
  3117  003E0E  0E03               	movlw	3
  3118  003E10  6E2A               	movwf	C1__ReceiveFIFO1NotEmptyHandler@data_Out^(0+1280),c
  3119                           
  3120                           ;interrupt_handler_function.c: 122:         data_Out[3]=200;
  3121  003E12  0EC8               	movlw	200
  3122  003E14  6E2D               	movwf	(C1__ReceiveFIFO1NotEmptyHandler@data_Out+3)^(0+1280),c
  3123                           
  3124                           ;interrupt_handler_function.c: 123:         data_Out[4]=0x55;
  3125  003E16  0E55               	movlw	85
  3126  003E18  6E2E               	movwf	(C1__ReceiveFIFO1NotEmptyHandler@data_Out+4)^(0+1280),c
  3127                           
  3128                           ;interrupt_handler_function.c: 124:         data_Out[5]=0x55;
  3129  003E1A  0E55               	movlw	85
  3130  003E1C  6E2F               	movwf	(C1__ReceiveFIFO1NotEmptyHandler@data_Out+5)^(0+1280),c
  3131                           
  3132                           ;interrupt_handler_function.c: 125:         data_Out[6]=0x55;
  3133  003E1E  0E55               	movlw	85
  3134  003E20  6E30               	movwf	(C1__ReceiveFIFO1NotEmptyHandler@data_Out+6)^(0+1280),c
  3135                           
  3136                           ;interrupt_handler_function.c: 126:     }
  3137  003E22  EF49  F01F         	goto	i2l2543
  3138  003E26                     i2l2531:
  3139  003E26  0E0C               	movlw	12
  3140  003E28  1839               	xorwf	C1__ReceiveFIFO1NotEmptyHandler@PID^(0+1280),w,c
  3141  003E2A  A4D8               	btfss	status,2,c
  3142  003E2C  EF1A  F01F         	goto	i2u170_41
  3143  003E30  EF1C  F01F         	goto	i2u170_40
  3144  003E34                     i2u170_41:
  3145  003E34  EF28  F01F         	goto	i2l2535
  3146  003E38                     i2u170_40:
  3147  003E38                     
  3148                           ;interrupt_handler_function.c: 129:     {;interrupt_handler_function.c: 130:         dat
      +                          a_Out[0]=4;
  3149  003E38  0E04               	movlw	4
  3150  003E3A  6E2A               	movwf	C1__ReceiveFIFO1NotEmptyHandler@data_Out^(0+1280),c
  3151                           
  3152                           ;interrupt_handler_function.c: 131:         data_Out[3]=54;
  3153  003E3C  0E36               	movlw	54
  3154  003E3E  6E2D               	movwf	(C1__ReceiveFIFO1NotEmptyHandler@data_Out+3)^(0+1280),c
  3155                           
  3156                           ;interrupt_handler_function.c: 132:         data_Out[4]=176;
  3157  003E40  0EB0               	movlw	176
  3158  003E42  6E2E               	movwf	(C1__ReceiveFIFO1NotEmptyHandler@data_Out+4)^(0+1280),c
  3159                           
  3160                           ;interrupt_handler_function.c: 133:         data_Out[5]=0x55;
  3161  003E44  0E55               	movlw	85
  3162  003E46  6E2F               	movwf	(C1__ReceiveFIFO1NotEmptyHandler@data_Out+5)^(0+1280),c
  3163                           
  3164                           ;interrupt_handler_function.c: 134:         data_Out[6]=0x55;
  3165  003E48  0E55               	movlw	85
  3166  003E4A  6E30               	movwf	(C1__ReceiveFIFO1NotEmptyHandler@data_Out+6)^(0+1280),c
  3167                           
  3168                           ;interrupt_handler_function.c: 135:     }
  3169  003E4C  EF49  F01F         	goto	i2l2543
  3170  003E50                     i2l2535:
  3171  003E50  0E0D               	movlw	13
  3172  003E52  1839               	xorwf	C1__ReceiveFIFO1NotEmptyHandler@PID^(0+1280),w,c
  3173  003E54  A4D8               	btfss	status,2,c
  3174  003E56  EF2F  F01F         	goto	i2u171_41
  3175  003E5A  EF31  F01F         	goto	i2u171_40
  3176  003E5E                     i2u171_41:
  3177  003E5E  EF3D  F01F         	goto	i2l2539
  3178  003E62                     i2u171_40:
  3179  003E62                     
  3180                           ;interrupt_handler_function.c: 138:     {;interrupt_handler_function.c: 139:         dat
      +                          a_Out[0]=3;
  3181  003E62  0E03               	movlw	3
  3182  003E64  6E2A               	movwf	C1__ReceiveFIFO1NotEmptyHandler@data_Out^(0+1280),c
  3183                           
  3184                           ;interrupt_handler_function.c: 140:         data_Out[3]=70;
  3185  003E66  0E46               	movlw	70
  3186  003E68  6E2D               	movwf	(C1__ReceiveFIFO1NotEmptyHandler@data_Out+3)^(0+1280),c
  3187                           
  3188                           ;interrupt_handler_function.c: 141:         data_Out[4]=0x55;
  3189  003E6A  0E55               	movlw	85
  3190  003E6C  6E2E               	movwf	(C1__ReceiveFIFO1NotEmptyHandler@data_Out+4)^(0+1280),c
  3191                           
  3192                           ;interrupt_handler_function.c: 142:         data_Out[5]=0x55;
  3193  003E6E  0E55               	movlw	85
  3194  003E70  6E2F               	movwf	(C1__ReceiveFIFO1NotEmptyHandler@data_Out+5)^(0+1280),c
  3195                           
  3196                           ;interrupt_handler_function.c: 143:         data_Out[6]=0x55;
  3197  003E72  0E55               	movlw	85
  3198  003E74  6E30               	movwf	(C1__ReceiveFIFO1NotEmptyHandler@data_Out+6)^(0+1280),c
  3199                           
  3200                           ;interrupt_handler_function.c: 144:     }
  3201  003E76  EF49  F01F         	goto	i2l2543
  3202  003E7A                     i2l2539:
  3203  003E7A  2839               	incf	C1__ReceiveFIFO1NotEmptyHandler@PID^(0+1280),w,c
  3204  003E7C  A4D8               	btfss	status,2,c
  3205  003E7E  EF43  F01F         	goto	i2u172_41
  3206  003E82  EF45  F01F         	goto	i2u172_40
  3207  003E86                     i2u172_41:
  3208  003E86  EF49  F01F         	goto	i2l655
  3209  003E8A                     i2u172_40:
  3210  003E8A                     
  3211                           ;interrupt_handler_function.c: 147:     {;interrupt_handler_function.c: 148:         TU1
      +                          6ACON0bits.ON = 1;
  3212  003E8A  0103               	movlb	3	; () banked
  3213  003E8C  8F87               	bsf	135,7,b	;volatile
  3214                           
  3215                           ;interrupt_handler_function.c: 149:         return;
  3216  003E8E  EF5F  F01F         	goto	i2l644
  3217  003E92                     i2l655:
  3218  003E92                     i2l2543:
  3219                           
  3220                           ;interrupt_handler_function.c: 151:         Return_Message.data=data_Out;
  3221  003E92  0E2A               	movlw	low C1__ReceiveFIFO1NotEmptyHandler@data_Out
  3222  003E94  6E3F               	movwf	(C1__ReceiveFIFO1NotEmptyHandler@Return_Message+5)^(0+1280),c
  3223  003E96  0E05               	movlw	high C1__ReceiveFIFO1NotEmptyHandler@data_Out
  3224  003E98  6E40               	movwf	(C1__ReceiveFIFO1NotEmptyHandler@Return_Message+6)^(0+1280),c
  3225  003E9A                     
  3226                           ;interrupt_handler_function.c: 152:         if(CAN_TX_FIFO_AVAILABLE == (CAN1_TransmitFI
      +                          FOStatusGet(TXQ) & CAN_TX_FIFO_AVAILABLE))
  3227  003E9A  0E00               	movlw	0
  3228  003E9C  EC65  F024         	call	_CAN1_TransmitFIFOStatusGet
  3229  003EA0  6E27               	movwf	??_C1__ReceiveFIFO1NotEmptyHandler^(0+1280),c
  3230  003EA2  A027               	btfss	??_C1__ReceiveFIFO1NotEmptyHandler^(0+1280),0,c
  3231  003EA4  EF56  F01F         	goto	i2u173_41
  3232  003EA8  EF58  F01F         	goto	i2u173_40
  3233  003EAC                     i2u173_41:
  3234  003EAC  EF5F  F01F         	goto	i2l644
  3235  003EB0                     i2u173_40:
  3236  003EB0                     
  3237                           ;interrupt_handler_function.c: 153:         {;interrupt_handler_function.c: 154:        
      +                               CAN1_Transmit(TXQ, &Return_Message);
  3238  003EB0  0E3A               	movlw	low C1__ReceiveFIFO1NotEmptyHandler@Return_Message
  3239  003EB2  6E17               	movwf	CAN1_Transmit@txCanMsg^(0+1280),c
  3240  003EB4  0E05               	movlw	high C1__ReceiveFIFO1NotEmptyHandler@Return_Message
  3241  003EB6  6E18               	movwf	(CAN1_Transmit@txCanMsg+1)^(0+1280),c
  3242  003EB8  0E00               	movlw	0
  3243  003EBA  EC40  F022         	call	_CAN1_Transmit
  3244  003EBE                     i2l644:
  3245  003EBE  0012               	return		;funcret
  3246  003EC0                     __end_of_C1__ReceiveFIFO1NotEmptyHandler:
  3247                           	callstack 0
  3248                           
  3249 ;; *************** function _CAN1_TransmitFIFOStatusGet *****************
  3250 ;; Defined at:
  3251 ;;		line 576 in file "mcc_generated_files/can1.c"
  3252 ;; Parameters:    Size  Location     Type
  3253 ;;  fifoChannel     1    wreg     const enum E22383
  3254 ;; Auto vars:     Size  Location     Type
  3255 ;;  fifoChannel     1    3[COMRAM] const enum E22383
  3256 ;;  status          1    2[COMRAM] enum E22361
  3257 ;; Return value:  Size  Location     Type
  3258 ;;                  1    wreg      enum E22361
  3259 ;; Registers used:
  3260 ;;		wreg, fsr2l, fsr2h, status,2, status,0, prodl, prodh, cstack
  3261 ;; Tracked objects:
  3262 ;;		On entry : 0/0
  3263 ;;		On exit  : 0/0
  3264 ;;		Unchanged: 0/0
  3265 ;; Data sizes:     COMRAM   BANK5   BANK6   BANK7   BANK8   BANK9  BANK10  BANK11  BANK12  BANK13  BANK14  BANK15  BANK1
      +6  BANK17  BANK18  BANK19  BANK20  BANK21  BANK22  BANK23  BANK24  BANK25  BANK26  BANK27  BANK28  BANK29  BANK30  BANK3
      +1  BANK32  BANK33  BANK34  BANK35  BANK36  BANK37  BANK38  BANK39  BANK40  BANK41  BANK42  BANK43  BANK44  BANK45  BANK4
      +6  BANK47  BANK48  BANK49  BANK50  BANK51  BANK52  BANK53  BANK54  BANK55
  3266 ;;      Params:         0       0       0       0       0       0       0       0       0       0       0       0       
      +0       0       0       0       0       0       0       0       0       0       0       0       0       0       0       
      +0       0       0       0       0       0       0       0       0       0       0       0       0       0       0       
      +0       0       0       0       0       0       0       0       0       0
  3267 ;;      Locals:         2       0       0       0       0       0       0       0       0       0       0       0       
      +0       0       0       0       0       0       0       0       0       0       0       0       0       0       0       
      +0       0       0       0       0       0       0       0       0       0       0       0       0       0       0       
      +0       0       0       0       0       0       0       0       0       0
  3268 ;;      Temps:          0       0       0       0       0       0       0       0       0       0       0       0       
      +0       0       0       0       0       0       0       0       0       0       0       0       0       0       0       
      +0       0       0       0       0       0       0       0       0       0       0       0       0       0       0       
      +0       0       0       0       0       0       0       0       0       0
  3269 ;;      Totals:         2       0       0       0       0       0       0       0       0       0       0       0       
      +0       0       0       0       0       0       0       0       0       0       0       0       0       0       0       
      +0       0       0       0       0       0       0       0       0       0       0       0       0       0       0       
      +0       0       0       0       0       0       0       0       0       0
  3270 ;;Total ram usage:        2 bytes
  3271 ;; Hardware stack levels used: 1
  3272 ;; Hardware stack levels required when called: 1
  3273 ;; This function calls:
  3274 ;;		_GetTxFifoStatus
  3275 ;;		_isTxChannel
  3276 ;; This function is called by:
  3277 ;;		_TU16A__C1_TransmitInterruptHandler
  3278 ;;		_C1__ReceiveFIFO1NotEmptyHandler
  3279 ;; This function uses a non-reentrant model
  3280 ;;
  3281                           
  3282                           	psect	text30
  3283  0048CA                     __ptext30:
  3284                           	callstack 0
  3285  0048CA                     _CAN1_TransmitFIFOStatusGet:
  3286                           	callstack 119
  3287                           
  3288                           ;incstack = 0
  3289                           ;CAN1_TransmitFIFOStatusGet@fifoChannel stored from wreg
  3290  0048CA  6E04               	movwf	CAN1_TransmitFIFOStatusGet@fifoChannel^(0+1280),c
  3291  0048CC                     
  3292                           ;mcc_generated_files/can1.c: 576: CAN_TX_FIFO_STATUS CAN1_TransmitFIFOStatusGet(const CA
      +                          N1_TX_FIFO_CHANNELS fifoChannel);mcc_generated_files/can1.c: 577: {;mcc_generated_files/
      +                          can1.c: 578:     CAN_TX_FIFO_STATUS status = CAN_TX_FIFO_FULL;
  3293  0048CC  0E00               	movlw	0
  3294  0048CE  6E03               	movwf	CAN1_TransmitFIFOStatusGet@status^(0+1280),c
  3295  0048D0                     
  3296                           ;mcc_generated_files/can1.c: 580:     if (isTxChannel(fifoChannel))
  3297  0048D0  5004               	movf	CAN1_TransmitFIFOStatusGet@fifoChannel^(0+1280),w,c
  3298  0048D2  ECEE  F023         	call	_isTxChannel
  3299  0048D6  0900               	iorlw	0
  3300  0048D8  B4D8               	btfsc	status,2,c
  3301  0048DA  EF71  F024         	goto	i2u156_41
  3302  0048DE  EF73  F024         	goto	i2u156_40
  3303  0048E2                     i2u156_41:
  3304  0048E2  EF77  F024         	goto	i2l2387
  3305  0048E6                     i2u156_40:
  3306  0048E6                     
  3307                           ;mcc_generated_files/can1.c: 581:     {;mcc_generated_files/can1.c: 582:         status 
      +                          = GetTxFifoStatus(fifoChannel);
  3308  0048E6  5004               	movf	CAN1_TransmitFIFOStatusGet@fifoChannel^(0+1280),w,c
  3309  0048E8  ECBB  F024         	call	_GetTxFifoStatus
  3310  0048EC  6E03               	movwf	CAN1_TransmitFIFOStatusGet@status^(0+1280),c
  3311  0048EE                     i2l2387:
  3312                           
  3313                           ;mcc_generated_files/can1.c: 585:     return status;
  3314  0048EE  5003               	movf	CAN1_TransmitFIFOStatusGet@status^(0+1280),w,c
  3315  0048F0  0012               	return		;funcret
  3316  0048F2                     __end_of_CAN1_TransmitFIFOStatusGet:
  3317                           	callstack 0
  3318                           
  3319 ;; *************** function _CAN1_Transmit *****************
  3320 ;; Defined at:
  3321 ;;		line 554 in file "mcc_generated_files/can1.c"
  3322 ;; Parameters:    Size  Location     Type
  3323 ;;  fifoChannel     1    wreg     const enum E22383
  3324 ;;  txCanMsg        2   22[COMRAM] PTR struct .
  3325 ;;		 -> C1__ReceiveFIFO1NotEmptyHandler@Return_Message(7), TU16A__C1_TransmitInterruptHandler@Transmission(7), 
  3326 ;; Auto vars:     Size  Location     Type
  3327 ;;  fifoChannel     1   27[COMRAM] const enum E22383
  3328 ;;  txFifoObj       2   25[COMRAM] PTR unsigned char 
  3329 ;;		 -> RAM(14335), 
  3330 ;;  status          1   24[COMRAM] enum E22340
  3331 ;; Return value:  Size  Location     Type
  3332 ;;                  1    wreg      enum E22340
  3333 ;; Registers used:
  3334 ;;		wreg, fsr1l, fsr1h, fsr2l, fsr2h, status,2, status,0, tblptrl, tblptrh, tblptru, prodl, prodh, cstack
  3335 ;; Tracked objects:
  3336 ;;		On entry : 0/0
  3337 ;;		On exit  : 0/0
  3338 ;;		Unchanged: 0/0
  3339 ;; Data sizes:     COMRAM   BANK5   BANK6   BANK7   BANK8   BANK9  BANK10  BANK11  BANK12  BANK13  BANK14  BANK15  BANK1
      +6  BANK17  BANK18  BANK19  BANK20  BANK21  BANK22  BANK23  BANK24  BANK25  BANK26  BANK27  BANK28  BANK29  BANK30  BANK3
      +1  BANK32  BANK33  BANK34  BANK35  BANK36  BANK37  BANK38  BANK39  BANK40  BANK41  BANK42  BANK43  BANK44  BANK45  BANK4
      +6  BANK47  BANK48  BANK49  BANK50  BANK51  BANK52  BANK53  BANK54  BANK55
  3340 ;;      Params:         2       0       0       0       0       0       0       0       0       0       0       0       
      +0       0       0       0       0       0       0       0       0       0       0       0       0       0       0       
      +0       0       0       0       0       0       0       0       0       0       0       0       0       0       0       
      +0       0       0       0       0       0       0       0       0       0
  3341 ;;      Locals:         4       0       0       0       0       0       0       0       0       0       0       0       
      +0       0       0       0       0       0       0       0       0       0       0       0       0       0       0       
      +0       0       0       0       0       0       0       0       0       0       0       0       0       0       0       
      +0       0       0       0       0       0       0       0       0       0
  3342 ;;      Temps:          0       0       0       0       0       0       0       0       0       0       0       0       
      +0       0       0       0       0       0       0       0       0       0       0       0       0       0       0       
      +0       0       0       0       0       0       0       0       0       0       0       0       0       0       0       
      +0       0       0       0       0       0       0       0       0       0
  3343 ;;      Totals:         6       0       0       0       0       0       0       0       0       0       0       0       
      +0       0       0       0       0       0       0       0       0       0       0       0       0       0       0       
      +0       0       0       0       0       0       0       0       0       0       0       0       0       0       0       
      +0       0       0       0       0       0       0       0       0       0
  3344 ;;Total ram usage:        6 bytes
  3345 ;; Hardware stack levels used: 1
  3346 ;; Hardware stack levels required when called: 2
  3347 ;; This function calls:
  3348 ;;		_ValidateTransmission
  3349 ;;		_WriteMessageToFifo
  3350 ;;		_isTxChannel
  3351 ;; This function is called by:
  3352 ;;		_TU16A__C1_TransmitInterruptHandler
  3353 ;;		_C1__ReceiveFIFO1NotEmptyHandler
  3354 ;; This function uses a non-reentrant model
  3355 ;;
  3356                           
  3357                           	psect	text31
  3358  004480                     __ptext31:
  3359                           	callstack 0
  3360  004480                     _CAN1_Transmit:
  3361                           	callstack 118
  3362                           
  3363                           ;incstack = 0
  3364                           ;CAN1_Transmit@fifoChannel stored from wreg
  3365  004480  6E1C               	movwf	CAN1_Transmit@fifoChannel^(0+1280),c
  3366  004482                     
  3367                           ;mcc_generated_files/can1.c: 558:     if (isTxChannel(fifoChannel))
  3368  004482  501C               	movf	CAN1_Transmit@fifoChannel^(0+1280),w,c
  3369  004484  ECEE  F023         	call	_isTxChannel
  3370  004488  0900               	iorlw	0
  3371  00448A  B4D8               	btfsc	status,2,c
  3372  00448C  EF4A  F022         	goto	i2u153_41
  3373  004490  EF4C  F022         	goto	i2u153_40
  3374  004494                     i2u153_41:
  3375  004494  EF89  F022         	goto	i2l410
  3376  004498                     i2u153_40:
  3377  004498                     
  3378                           ;mcc_generated_files/can1.c: 559:     {;mcc_generated_files/can1.c: 560:         status 
      +                          = ValidateTransmission(fifoChannel, txCanMsg);
  3379  004498  C517  F502         	movff	CAN1_Transmit@txCanMsg,ValidateTransmission@txCanMsg
  3380  00449C  C518  F503         	movff	CAN1_Transmit@txCanMsg+1,ValidateTransmission@txCanMsg+1
  3381  0044A0  501C               	movf	CAN1_Transmit@fifoChannel^(0+1280),w,c
  3382  0044A2  EC88  F020         	call	_ValidateTransmission
  3383  0044A6  6E19               	movwf	CAN1_Transmit@status^(0+1280),c
  3384  0044A8                     
  3385                           ;mcc_generated_files/can1.c: 561:         if (CAN_TX_MSG_REQUEST_SUCCESS == status)
  3386  0044A8  5019               	movf	CAN1_Transmit@status^(0+1280),w,c
  3387  0044AA  A4D8               	btfss	status,2,c
  3388  0044AC  EF5A  F022         	goto	i2u154_41
  3389  0044B0  EF5C  F022         	goto	i2u154_40
  3390  0044B4                     i2u154_41:
  3391  0044B4  EF89  F022         	goto	i2l410
  3392  0044B8                     i2u154_40:
  3393  0044B8                     
  3394                           ;mcc_generated_files/can1.c: 562:         {;mcc_generated_files/can1.c: 563:            
      +                           uint8_t *txFifoObj = (uint8_t *) FIFO[fifoChannel].UA;
  3395  0044B8  501C               	movf	CAN1_Transmit@fifoChannel^(0+1280),w,c
  3396  0044BA  0D0C               	mullw	12
  3397  0044BC  0E58               	movlw	88
  3398  0044BE  24F3               	addwf	243,w,c
  3399  0044C0  6ED9               	movwf	fsr2l,c
  3400  0044C2  0E01               	movlw	1
  3401  0044C4  20F4               	addwfc	prodh,w,c
  3402  0044C6  6EDA               	movwf	fsr2h,c
  3403  0044C8  0061 F378  F51A    	movff	postinc2,CAN1_Transmit@txFifoObj
  3404  0044CE  0061 F374  F51B    	movff	postdec2,CAN1_Transmit@txFifoObj+1
  3405  0044D4                     
  3406                           ;mcc_generated_files/can1.c: 565:             if (txFifoObj != ((void*)0))
  3407  0044D4  501A               	movf	CAN1_Transmit@txFifoObj^(0+1280),w,c
  3408  0044D6  101B               	iorwf	(CAN1_Transmit@txFifoObj+1)^(0+1280),w,c
  3409  0044D8  B4D8               	btfsc	status,2,c
  3410  0044DA  EF71  F022         	goto	i2u155_41
  3411  0044DE  EF73  F022         	goto	i2u155_40
  3412  0044E2                     i2u155_41:
  3413  0044E2  EF89  F022         	goto	i2l407
  3414  0044E6                     i2u155_40:
  3415  0044E6                     
  3416                           ;mcc_generated_files/can1.c: 566:             {;mcc_generated_files/can1.c: 567:        
      +                                   WriteMessageToFifo(txFifoObj, txCanMsg);
  3417  0044E6  C51A  F50C         	movff	CAN1_Transmit@txFifoObj,WriteMessageToFifo@txFifoObj
  3418  0044EA  C51B  F50D         	movff	CAN1_Transmit@txFifoObj+1,WriteMessageToFifo@txFifoObj+1
  3419  0044EE  C517  F50E         	movff	CAN1_Transmit@txCanMsg,WriteMessageToFifo@txCanMsg
  3420  0044F2  C518  F50F         	movff	CAN1_Transmit@txCanMsg+1,WriteMessageToFifo@txCanMsg+1
  3421  0044F6  EC07  F01C         	call	_WriteMessageToFifo	;wreg free
  3422  0044FA                     
  3423                           ;mcc_generated_files/can1.c: 568:                 FIFO[fifoChannel].CONH |= (0x2 | 0x1);
  3424  0044FA  501C               	movf	CAN1_Transmit@fifoChannel^(0+1280),w,c
  3425  0044FC  0D0C               	mullw	12
  3426  0044FE  0E51               	movlw	81
  3427  004500  24F3               	addwf	243,w,c
  3428  004502  6ED9               	movwf	fsr2l,c
  3429  004504  0E01               	movlw	1
  3430  004506  20F4               	addwfc	prodh,w,c
  3431  004508  6EDA               	movwf	fsr2h,c
  3432  00450A  0E03               	movlw	3
  3433  00450C  12DF               	iorwf	indf2,f,c
  3434  00450E  EF89  F022         	goto	i2l410
  3435  004512                     i2l407:
  3436  004512                     i2l410:
  3437  004512  0012               	return		;funcret
  3438  004514                     __end_of_CAN1_Transmit:
  3439                           	callstack 0
  3440                           
  3441 ;; *************** function _isTxChannel *****************
  3442 ;; Defined at:
  3443 ;;		line 474 in file "mcc_generated_files/can1.c"
  3444 ;; Parameters:    Size  Location     Type
  3445 ;;  channel         1    wreg     unsigned char 
  3446 ;; Auto vars:     Size  Location     Type
  3447 ;;  channel         1    1[COMRAM] unsigned char 
  3448 ;; Return value:  Size  Location     Type
  3449 ;;                  1    wreg      _Bool 
  3450 ;; Registers used:
  3451 ;;		wreg, fsr2l, fsr2h, status,2, status,0, prodl, prodh
  3452 ;; Tracked objects:
  3453 ;;		On entry : 0/0
  3454 ;;		On exit  : 0/0
  3455 ;;		Unchanged: 0/0
  3456 ;; Data sizes:     COMRAM   BANK5   BANK6   BANK7   BANK8   BANK9  BANK10  BANK11  BANK12  BANK13  BANK14  BANK15  BANK1
      +6  BANK17  BANK18  BANK19  BANK20  BANK21  BANK22  BANK23  BANK24  BANK25  BANK26  BANK27  BANK28  BANK29  BANK30  BANK3
      +1  BANK32  BANK33  BANK34  BANK35  BANK36  BANK37  BANK38  BANK39  BANK40  BANK41  BANK42  BANK43  BANK44  BANK45  BANK4
      +6  BANK47  BANK48  BANK49  BANK50  BANK51  BANK52  BANK53  BANK54  BANK55
  3457 ;;      Params:         0       0       0       0       0       0       0       0       0       0       0       0       
      +0       0       0       0       0       0       0       0       0       0       0       0       0       0       0       
      +0       0       0       0       0       0       0       0       0       0       0       0       0       0       0       
      +0       0       0       0       0       0       0       0       0       0
  3458 ;;      Locals:         2       0       0       0       0       0       0       0       0       0       0       0       
      +0       0       0       0       0       0       0       0       0       0       0       0       0       0       0       
      +0       0       0       0       0       0       0       0       0       0       0       0       0       0       0       
      +0       0       0       0       0       0       0       0       0       0
  3459 ;;      Temps:          0       0       0       0       0       0       0       0       0       0       0       0       
      +0       0       0       0       0       0       0       0       0       0       0       0       0       0       0       
      +0       0       0       0       0       0       0       0       0       0       0       0       0       0       0       
      +0       0       0       0       0       0       0       0       0       0
  3460 ;;      Totals:         2       0       0       0       0       0       0       0       0       0       0       0       
      +0       0       0       0       0       0       0       0       0       0       0       0       0       0       0       
      +0       0       0       0       0       0       0       0       0       0       0       0       0       0       0       
      +0       0       0       0       0       0       0       0       0       0
  3461 ;;Total ram usage:        2 bytes
  3462 ;; Hardware stack levels used: 1
  3463 ;; This function calls:
  3464 ;;		Nothing
  3465 ;; This function is called by:
  3466 ;;		_CAN1_Transmit
  3467 ;;		_CAN1_TransmitFIFOStatusGet
  3468 ;; This function uses a non-reentrant model
  3469 ;;
  3470                           
  3471                           	psect	text32
  3472  0047DC                     __ptext32:
  3473                           	callstack 0
  3474  0047DC                     _isTxChannel:
  3475                           	callstack 119
  3476                           
  3477                           ;incstack = 0
  3478                           ;isTxChannel@channel stored from wreg
  3479  0047DC  6E02               	movwf	isTxChannel@channel^(0+1280),c
  3480  0047DE                     
  3481                           ;mcc_generated_files/can1.c: 474: static _Bool isTxChannel(uint8_t channel);mcc_generate
      +                          d_files/can1.c: 475: {;mcc_generated_files/can1.c: 476:     return channel < 4u && (FIFO
      +                          [channel].CONL & 0x80);
  3482  0047DE  0E00               	movlw	0
  3483  0047E0  6E01               	movwf	_isTxChannel$861^(0+1280),c
  3484  0047E2  0E04               	movlw	4
  3485  0047E4  6002               	cpfslt	isTxChannel@channel^(0+1280),c
  3486  0047E6  EFF7  F023         	goto	i2u120_41
  3487  0047EA  EFF9  F023         	goto	i2u120_40
  3488  0047EE                     i2u120_41:
  3489  0047EE  EF0B  F024         	goto	i2l385
  3490  0047F2                     i2u120_40:
  3491  0047F2  5002               	movf	isTxChannel@channel^(0+1280),w,c
  3492  0047F4  0D0C               	mullw	12
  3493  0047F6  0E50               	movlw	80
  3494  0047F8  24F3               	addwf	243,w,c
  3495  0047FA  6ED9               	movwf	fsr2l,c
  3496  0047FC  0E01               	movlw	1
  3497  0047FE  20F4               	addwfc	prodh,w,c
  3498  004800  6EDA               	movwf	fsr2h,c
  3499  004802  0101               	movlb	1	; () banked
  3500  004804  AEDF               	btfss	indf2,7,c
  3501  004806  EF07  F024         	goto	i2u121_41
  3502  00480A  EF09  F024         	goto	i2u121_40
  3503  00480E                     i2u121_41:
  3504  00480E  EF0B  F024         	goto	i2l385
  3505  004812                     i2u121_40:
  3506  004812                     
  3507                           ; BSR set to: 1
  3508  004812  0E01               	movlw	1
  3509  004814  6E01               	movwf	_isTxChannel$861^(0+1280),c
  3510  004816                     i2l385:
  3511  004816  5001               	movf	_isTxChannel$861^(0+1280),w,c
  3512  004818  0012               	return		;funcret
  3513  00481A                     __end_of_isTxChannel:
  3514                           	callstack 0
  3515                           
  3516 ;; *************** function _WriteMessageToFifo *****************
  3517 ;; Defined at:
  3518 ;;		line 484 in file "mcc_generated_files/can1.c"
  3519 ;; Parameters:    Size  Location     Type
  3520 ;;  txFifoObj       2   11[COMRAM] PTR unsigned char 
  3521 ;;		 -> RAM(14335), 
  3522 ;;  txCanMsg        2   13[COMRAM] PTR struct .
  3523 ;;		 -> C1__ReceiveFIFO1NotEmptyHandler@Return_Message(7), TU16A__C1_TransmitInterruptHandler@Transmission(7), 
  3524 ;; Auto vars:     Size  Location     Type
  3525 ;;  msgId           4   18[COMRAM] unsigned long 
  3526 ;;  status          1   17[COMRAM] unsigned char 
  3527 ;;  payloadOffse    1    0        const unsigned char 
  3528 ;; Return value:  Size  Location     Type
  3529 ;;                  1    wreg      void 
  3530 ;; Registers used:
  3531 ;;		wreg, fsr1l, fsr1h, fsr2l, fsr2h, status,2, status,0, tblptrl, tblptrh, tblptru, cstack
  3532 ;; Tracked objects:
  3533 ;;		On entry : 0/0
  3534 ;;		On exit  : 0/0
  3535 ;;		Unchanged: 0/0
  3536 ;; Data sizes:     COMRAM   BANK5   BANK6   BANK7   BANK8   BANK9  BANK10  BANK11  BANK12  BANK13  BANK14  BANK15  BANK1
      +6  BANK17  BANK18  BANK19  BANK20  BANK21  BANK22  BANK23  BANK24  BANK25  BANK26  BANK27  BANK28  BANK29  BANK30  BANK3
      +1  BANK32  BANK33  BANK34  BANK35  BANK36  BANK37  BANK38  BANK39  BANK40  BANK41  BANK42  BANK43  BANK44  BANK45  BANK4
      +6  BANK47  BANK48  BANK49  BANK50  BANK51  BANK52  BANK53  BANK54  BANK55
  3537 ;;      Params:         4       0       0       0       0       0       0       0       0       0       0       0       
      +0       0       0       0       0       0       0       0       0       0       0       0       0       0       0       
      +0       0       0       0       0       0       0       0       0       0       0       0       0       0       0       
      +0       0       0       0       0       0       0       0       0       0
  3538 ;;      Locals:         5       0       0       0       0       0       0       0       0       0       0       0       
      +0       0       0       0       0       0       0       0       0       0       0       0       0       0       0       
      +0       0       0       0       0       0       0       0       0       0       0       0       0       0       0       
      +0       0       0       0       0       0       0       0       0       0
  3539 ;;      Temps:          2       0       0       0       0       0       0       0       0       0       0       0       
      +0       0       0       0       0       0       0       0       0       0       0       0       0       0       0       
      +0       0       0       0       0       0       0       0       0       0       0       0       0       0       0       
      +0       0       0       0       0       0       0       0       0       0
  3540 ;;      Totals:        11       0       0       0       0       0       0       0       0       0       0       0       
      +0       0       0       0       0       0       0       0       0       0       0       0       0       0       0       
      +0       0       0       0       0       0       0       0       0       0       0       0       0       0       0       
      +0       0       0       0       0       0       0       0       0       0
  3541 ;;Total ram usage:       11 bytes
  3542 ;; Hardware stack levels used: 1
  3543 ;; Hardware stack levels required when called: 1
  3544 ;; This function calls:
  3545 ;;		_memcpy
  3546 ;; This function is called by:
  3547 ;;		_CAN1_Transmit
  3548 ;; This function uses a non-reentrant model
  3549 ;;
  3550                           
  3551                           	psect	text33
  3552  00380E                     __ptext33:
  3553                           	callstack 0
  3554  00380E                     _WriteMessageToFifo:
  3555                           	callstack 118
  3556  00380E                     
  3557                           ;mcc_generated_files/can1.c: 484: static void WriteMessageToFifo(uint8_t *txFifoObj, CAN
      +                          _MSG_OBJ *txCanMsg);mcc_generated_files/can1.c: 485: {;mcc_generated_files/can1.c: 486: 
      +                              uint32_t msgId = txCanMsg->msgId;
  3558  00380E  0061  F438  F4D9   	movff	WriteMessageToFifo@txCanMsg,fsr2l
  3559  003814  0061  F43C  F4DA   	movff	WriteMessageToFifo@txCanMsg+1,fsr2h
  3560  00381A  0061 F378  F513    	movff	postinc2,WriteMessageToFifo@msgId
  3561  003820  0061 F378  F514    	movff	postinc2,WriteMessageToFifo@msgId+1
  3562  003826  0061 F378  F515    	movff	postinc2,WriteMessageToFifo@msgId+2
  3563  00382C  0061 F378  F516    	movff	postinc2,WriteMessageToFifo@msgId+3
  3564  003832                     
  3565                           ;mcc_generated_files/can1.c: 494:     if (CAN_FRAME_EXT == txCanMsg->field.idType)
  3566  003832  EE20 F004          	lfsr	2,4
  3567  003836  500E               	movf	WriteMessageToFifo@txCanMsg^(0+1280),w,c
  3568  003838  26D9               	addwf	fsr2l,f,c
  3569  00383A  500F               	movf	(WriteMessageToFifo@txCanMsg+1)^(0+1280),w,c
  3570  00383C  22DA               	addwfc	fsr2h,f,c
  3571  00383E  A0DF               	btfss	indf2,0,c
  3572  003840  EF24  F01C         	goto	i2u122_41
  3573  003844  EF26  F01C         	goto	i2u122_40
  3574  003848                     i2u122_41:
  3575  003848  EF60  F01C         	goto	i2l2191
  3576  00384C                     i2u122_40:
  3577  00384C                     
  3578                           ;mcc_generated_files/can1.c: 495:     {;mcc_generated_files/can1.c: 496:         txFifoO
      +                          bj[1] = (msgId << (3U)) & (0xF8U);
  3579  00384C  EE20 F001          	lfsr	2,1
  3580  003850  500C               	movf	WriteMessageToFifo@txFifoObj^(0+1280),w,c
  3581  003852  26D9               	addwf	fsr2l,f,c
  3582  003854  500D               	movf	(WriteMessageToFifo@txFifoObj+1)^(0+1280),w,c
  3583  003856  22DA               	addwfc	fsr2h,f,c
  3584  003858  3813               	swapf	WriteMessageToFifo@msgId^(0+1280),w,c
  3585  00385A  42E8               	rrncf	wreg,f,c
  3586  00385C  0BF8               	andlw	248
  3587  00385E  0BF8               	andlw	248
  3588  003860  6EDF               	movwf	indf2,c
  3589  003862                     
  3590                           ;mcc_generated_files/can1.c: 497:         msgId >>= (5U);
  3591  003862  0E05               	movlw	5
  3592  003864  6E10               	movwf	??_WriteMessageToFifo^(0+1280),c
  3593  003866                     i2u123_45:
  3594  003866  90D8               	bcf	status,0,c
  3595  003868  3216               	rrcf	(WriteMessageToFifo@msgId+3)^(0+1280),f,c
  3596  00386A  3215               	rrcf	(WriteMessageToFifo@msgId+2)^(0+1280),f,c
  3597  00386C  3214               	rrcf	(WriteMessageToFifo@msgId+1)^(0+1280),f,c
  3598  00386E  3213               	rrcf	WriteMessageToFifo@msgId^(0+1280),f,c
  3599  003870  2E10               	decfsz	??_WriteMessageToFifo^(0+1280),f,c
  3600  003872  EF33  F01C         	goto	i2u123_45
  3601  003876                     
  3602                           ;mcc_generated_files/can1.c: 498:         txFifoObj[2] = msgId;
  3603  003876  EE20 F002          	lfsr	2,2
  3604  00387A  500C               	movf	WriteMessageToFifo@txFifoObj^(0+1280),w,c
  3605  00387C  26D9               	addwf	fsr2l,f,c
  3606  00387E  500D               	movf	(WriteMessageToFifo@txFifoObj+1)^(0+1280),w,c
  3607  003880  22DA               	addwfc	fsr2h,f,c
  3608  003882  0061  F44C  F4DF   	movff	WriteMessageToFifo@msgId,indf2
  3609  003888                     
  3610                           ;mcc_generated_files/can1.c: 499:         msgId >>= (8U);
  3611  003888  C514  F513         	movff	WriteMessageToFifo@msgId+1,WriteMessageToFifo@msgId
  3612  00388C  C515  F514         	movff	WriteMessageToFifo@msgId+2,WriteMessageToFifo@msgId+1
  3613  003890  C516  F515         	movff	WriteMessageToFifo@msgId+3,WriteMessageToFifo@msgId+2
  3614  003894  6A16               	clrf	(WriteMessageToFifo@msgId+3)^(0+1280),c
  3615  003896                     
  3616                           ;mcc_generated_files/can1.c: 500:         txFifoObj[3] = (msgId & (0x1FU));
  3617  003896  EE20 F003          	lfsr	2,3
  3618  00389A  500C               	movf	WriteMessageToFifo@txFifoObj^(0+1280),w,c
  3619  00389C  26D9               	addwf	fsr2l,f,c
  3620  00389E  500D               	movf	(WriteMessageToFifo@txFifoObj+1)^(0+1280),w,c
  3621  0038A0  22DA               	addwfc	fsr2h,f,c
  3622  0038A2  5013               	movf	WriteMessageToFifo@msgId^(0+1280),w,c
  3623  0038A4  0B1F               	andlw	31
  3624  0038A6  6EDF               	movwf	indf2,c
  3625  0038A8                     
  3626                           ;mcc_generated_files/can1.c: 501:         msgId >>= (5U);
  3627  0038A8  0E05               	movlw	5
  3628  0038AA  6E10               	movwf	??_WriteMessageToFifo^(0+1280),c
  3629  0038AC                     i2u124_45:
  3630  0038AC  90D8               	bcf	status,0,c
  3631  0038AE  3216               	rrcf	(WriteMessageToFifo@msgId+3)^(0+1280),f,c
  3632  0038B0  3215               	rrcf	(WriteMessageToFifo@msgId+2)^(0+1280),f,c
  3633  0038B2  3214               	rrcf	(WriteMessageToFifo@msgId+1)^(0+1280),f,c
  3634  0038B4  3213               	rrcf	WriteMessageToFifo@msgId^(0+1280),f,c
  3635  0038B6  2E10               	decfsz	??_WriteMessageToFifo^(0+1280),f,c
  3636  0038B8  EF56  F01C         	goto	i2u124_45
  3637                           
  3638                           ;mcc_generated_files/can1.c: 502:     }
  3639  0038BC  EF78  F01C         	goto	i2l2193
  3640  0038C0                     i2l2191:
  3641                           
  3642                           ;mcc_generated_files/can1.c: 504:     {;mcc_generated_files/can1.c: 505:         txFifoO
      +                          bj[1] = txFifoObj[2] = txFifoObj[3] = 0;
  3643  0038C0  EE20 F003          	lfsr	2,3
  3644  0038C4  500C               	movf	WriteMessageToFifo@txFifoObj^(0+1280),w,c
  3645  0038C6  26D9               	addwf	fsr2l,f,c
  3646  0038C8  500D               	movf	(WriteMessageToFifo@txFifoObj+1)^(0+1280),w,c
  3647  0038CA  22DA               	addwfc	fsr2h,f,c
  3648  0038CC  0E00               	movlw	0
  3649  0038CE  6EDF               	movwf	indf2,c
  3650  0038D0  EE10 F002          	lfsr	1,2
  3651  0038D4  500C               	movf	WriteMessageToFifo@txFifoObj^(0+1280),w,c
  3652  0038D6  26E1               	addwf	fsr1l,f,c
  3653  0038D8  500D               	movf	(WriteMessageToFifo@txFifoObj+1)^(0+1280),w,c
  3654  0038DA  22E2               	addwfc	fsr1h,f,c
  3655  0038DC  C4DF F4E7          	movff	indf2,indf1
  3656  0038E0  EE20 F001          	lfsr	2,1
  3657  0038E4  500C               	movf	WriteMessageToFifo@txFifoObj^(0+1280),w,c
  3658  0038E6  26D9               	addwf	fsr2l,f,c
  3659  0038E8  500D               	movf	(WriteMessageToFifo@txFifoObj+1)^(0+1280),w,c
  3660  0038EA  22DA               	addwfc	fsr2h,f,c
  3661  0038EC  C4E7 F4DF          	movff	indf1,indf2
  3662  0038F0                     i2l2193:
  3663                           
  3664                           ;mcc_generated_files/can1.c: 508:     txFifoObj[0] = msgId;
  3665  0038F0  0061  F430  F4D9   	movff	WriteMessageToFifo@txFifoObj,fsr2l
  3666  0038F6  0061  F434  F4DA   	movff	WriteMessageToFifo@txFifoObj+1,fsr2h
  3667  0038FC  0061  F44C  F4DF   	movff	WriteMessageToFifo@msgId,indf2
  3668  003902                     
  3669                           ;mcc_generated_files/can1.c: 509:     msgId >>= (8U);
  3670  003902  C514  F513         	movff	WriteMessageToFifo@msgId+1,WriteMessageToFifo@msgId
  3671  003906  C515  F514         	movff	WriteMessageToFifo@msgId+2,WriteMessageToFifo@msgId+1
  3672  00390A  C516  F515         	movff	WriteMessageToFifo@msgId+3,WriteMessageToFifo@msgId+2
  3673  00390E  6A16               	clrf	(WriteMessageToFifo@msgId+3)^(0+1280),c
  3674  003910                     
  3675                           ;mcc_generated_files/can1.c: 510:     txFifoObj[1] |= (msgId & (0x07U));
  3676  003910  C513  F510         	movff	WriteMessageToFifo@msgId,??_WriteMessageToFifo
  3677  003914  0E07               	movlw	7
  3678  003916  1610               	andwf	??_WriteMessageToFifo^(0+1280),f,c
  3679  003918  EE20 F001          	lfsr	2,1
  3680  00391C  500C               	movf	WriteMessageToFifo@txFifoObj^(0+1280),w,c
  3681  00391E  26D9               	addwf	fsr2l,f,c
  3682  003920  500D               	movf	(WriteMessageToFifo@txFifoObj+1)^(0+1280),w,c
  3683  003922  22DA               	addwfc	fsr2h,f,c
  3684  003924  5010               	movf	??_WriteMessageToFifo^(0+1280),w,c
  3685  003926  12DF               	iorwf	indf2,f,c
  3686  003928                     
  3687                           ;mcc_generated_files/can1.c: 512:     status = txCanMsg->field.dlc;
  3688  003928  EE20 F004          	lfsr	2,4
  3689  00392C  500E               	movf	WriteMessageToFifo@txCanMsg^(0+1280),w,c
  3690  00392E  26D9               	addwf	fsr2l,f,c
  3691  003930  500F               	movf	(WriteMessageToFifo@txCanMsg+1)^(0+1280),w,c
  3692  003932  22DA               	addwfc	fsr2h,f,c
  3693  003934  30DF               	rrcf	479,w,c
  3694  003936  32E8               	rrcf	wreg,f,c
  3695  003938  0B0F               	andlw	15
  3696  00393A  6E12               	movwf	WriteMessageToFifo@status^(0+1280),c
  3697  00393C                     
  3698                           ;mcc_generated_files/can1.c: 513:     status |= (txCanMsg->field.idType << (4U));
  3699  00393C  EE20 F004          	lfsr	2,4
  3700  003940  500E               	movf	WriteMessageToFifo@txCanMsg^(0+1280),w,c
  3701  003942  26D9               	addwf	fsr2l,f,c
  3702  003944  500F               	movf	(WriteMessageToFifo@txCanMsg+1)^(0+1280),w,c
  3703  003946  22DA               	addwfc	fsr2h,f,c
  3704  003948  B0DF               	btfsc	indf2,0,c
  3705  00394A  EFA9  F01C         	goto	i2u125_41
  3706  00394E  EFAD  F01C         	goto	i2u125_40
  3707  003952                     i2u125_41:
  3708  003952  6A10               	clrf	??_WriteMessageToFifo^(0+1280),c
  3709  003954  2A10               	incf	??_WriteMessageToFifo^(0+1280),f,c
  3710  003956  EFAE  F01C         	goto	i2u125_48
  3711  00395A                     i2u125_40:
  3712  00395A  6A10               	clrf	??_WriteMessageToFifo^(0+1280),c
  3713  00395C                     i2u125_48:
  3714  00395C  3810               	swapf	??_WriteMessageToFifo^(0+1280),w,c
  3715  00395E  0BF0               	andlw	240
  3716  003960  1212               	iorwf	WriteMessageToFifo@status^(0+1280),f,c
  3717  003962                     
  3718                           ;mcc_generated_files/can1.c: 514:     status |= (txCanMsg->field.frameType << (5U));
  3719  003962  EE20 F004          	lfsr	2,4
  3720  003966  500E               	movf	WriteMessageToFifo@txCanMsg^(0+1280),w,c
  3721  003968  26D9               	addwf	fsr2l,f,c
  3722  00396A  500F               	movf	(WriteMessageToFifo@txCanMsg+1)^(0+1280),w,c
  3723  00396C  22DA               	addwfc	fsr2h,f,c
  3724  00396E  B2DF               	btfsc	indf2,1,c
  3725  003970  EFBC  F01C         	goto	i2u126_41
  3726  003974  EFC0  F01C         	goto	i2u126_40
  3727  003978                     i2u126_41:
  3728  003978  0E20               	movlw	32
  3729  00397A  6E10               	movwf	??_WriteMessageToFifo^(0+1280),c
  3730  00397C  EFC1  F01C         	goto	i2u127_45
  3731  003980                     i2u126_40:
  3732  003980  6A10               	clrf	??_WriteMessageToFifo^(0+1280),c
  3733  003982                     i2u127_45:
  3734  003982  5010               	movf	??_WriteMessageToFifo^(0+1280),w,c
  3735  003984  1212               	iorwf	WriteMessageToFifo@status^(0+1280),f,c
  3736  003986                     
  3737                           ;mcc_generated_files/can1.c: 515:     status |= (txCanMsg->field.brs << (6U));
  3738  003986  EE20 F004          	lfsr	2,4
  3739  00398A  500E               	movf	WriteMessageToFifo@txCanMsg^(0+1280),w,c
  3740  00398C  26D9               	addwf	fsr2l,f,c
  3741  00398E  500F               	movf	(WriteMessageToFifo@txCanMsg+1)^(0+1280),w,c
  3742  003990  22DA               	addwfc	fsr2h,f,c
  3743  003992  BEDF               	btfsc	indf2,7,c
  3744  003994  EFCE  F01C         	goto	i2u128_41
  3745  003998  EFD2  F01C         	goto	i2u128_40
  3746  00399C                     i2u128_41:
  3747  00399C  0E40               	movlw	64
  3748  00399E  6E10               	movwf	??_WriteMessageToFifo^(0+1280),c
  3749  0039A0  EFD3  F01C         	goto	i2u129_45
  3750  0039A4                     i2u128_40:
  3751  0039A4  6A10               	clrf	??_WriteMessageToFifo^(0+1280),c
  3752  0039A6                     i2u129_45:
  3753  0039A6  5010               	movf	??_WriteMessageToFifo^(0+1280),w,c
  3754  0039A8  1212               	iorwf	WriteMessageToFifo@status^(0+1280),f,c
  3755  0039AA                     
  3756                           ;mcc_generated_files/can1.c: 516:     status |= (txCanMsg->field.formatType << (7U));
  3757  0039AA  EE20 F004          	lfsr	2,4
  3758  0039AE  500E               	movf	WriteMessageToFifo@txCanMsg^(0+1280),w,c
  3759  0039B0  26D9               	addwf	fsr2l,f,c
  3760  0039B2  500F               	movf	(WriteMessageToFifo@txCanMsg+1)^(0+1280),w,c
  3761  0039B4  22DA               	addwfc	fsr2h,f,c
  3762  0039B6  BCDF               	btfsc	indf2,6,c
  3763  0039B8  EFE0  F01C         	goto	i2u130_41
  3764  0039BC  EFE4  F01C         	goto	i2u130_40
  3765  0039C0                     i2u130_41:
  3766  0039C0  0E80               	movlw	128
  3767  0039C2  6E10               	movwf	??_WriteMessageToFifo^(0+1280),c
  3768  0039C4  EFE5  F01C         	goto	i2u131_45
  3769  0039C8                     i2u130_40:
  3770  0039C8  6A10               	clrf	??_WriteMessageToFifo^(0+1280),c
  3771  0039CA                     i2u131_45:
  3772  0039CA  5010               	movf	??_WriteMessageToFifo^(0+1280),w,c
  3773  0039CC  1212               	iorwf	WriteMessageToFifo@status^(0+1280),f,c
  3774  0039CE                     
  3775                           ;mcc_generated_files/can1.c: 517:     txFifoObj[4] = status;
  3776  0039CE  EE20 F004          	lfsr	2,4
  3777  0039D2  500C               	movf	WriteMessageToFifo@txFifoObj^(0+1280),w,c
  3778  0039D4  26D9               	addwf	fsr2l,f,c
  3779  0039D6  500D               	movf	(WriteMessageToFifo@txFifoObj+1)^(0+1280),w,c
  3780  0039D8  22DA               	addwfc	fsr2h,f,c
  3781  0039DA  0061  F448  F4DF   	movff	WriteMessageToFifo@status,indf2
  3782  0039E0                     
  3783                           ;mcc_generated_files/can1.c: 519:     if (CAN_FRAME_DATA == txCanMsg->field.frameType)
  3784  0039E0  EE20 F004          	lfsr	2,4
  3785  0039E4  500E               	movf	WriteMessageToFifo@txCanMsg^(0+1280),w,c
  3786  0039E6  26D9               	addwf	fsr2l,f,c
  3787  0039E8  500F               	movf	(WriteMessageToFifo@txCanMsg+1)^(0+1280),w,c
  3788  0039EA  22DA               	addwfc	fsr2h,f,c
  3789  0039EC  B2DF               	btfsc	indf2,1,c
  3790  0039EE  EFFB  F01C         	goto	i2u132_41
  3791  0039F2  EFFD  F01C         	goto	i2u132_40
  3792  0039F6                     i2u132_41:
  3793  0039F6  EF29  F01D         	goto	i2l395
  3794  0039FA                     i2u132_40:
  3795  0039FA                     
  3796                           ;mcc_generated_files/can1.c: 520:     {;mcc_generated_files/can1.c: 521:         memcpy(
      +                          txFifoObj + payloadOffsetBytes, txCanMsg->data, (DLC_BYTES[(txCanMsg->field.dlc)]));
  3797  0039FA  0E08               	movlw	8
  3798  0039FC  240C               	addwf	WriteMessageToFifo@txFifoObj^(0+1280),w,c
  3799  0039FE  6E01               	movwf	memcpy@d1^(0+1280),c
  3800  003A00  0E00               	movlw	0
  3801  003A02  200D               	addwfc	(WriteMessageToFifo@txFifoObj+1)^(0+1280),w,c
  3802  003A04  6E02               	movwf	(memcpy@d1+1)^(0+1280),c
  3803  003A06  EE20 F005          	lfsr	2,5
  3804  003A0A  500E               	movf	WriteMessageToFifo@txCanMsg^(0+1280),w,c
  3805  003A0C  26D9               	addwf	fsr2l,f,c
  3806  003A0E  500F               	movf	(WriteMessageToFifo@txCanMsg+1)^(0+1280),w,c
  3807  003A10  22DA               	addwfc	fsr2h,f,c
  3808  003A12  0061 F378  F503    	movff	postinc2,memcpy@s1
  3809  003A18  0061 F374  F504    	movff	postdec2,memcpy@s1+1
  3810  003A1E  EE20 F004          	lfsr	2,4
  3811  003A22  500E               	movf	WriteMessageToFifo@txCanMsg^(0+1280),w,c
  3812  003A24  26D9               	addwf	fsr2l,f,c
  3813  003A26  500F               	movf	(WriteMessageToFifo@txCanMsg+1)^(0+1280),w,c
  3814  003A28  22DA               	addwfc	fsr2h,f,c
  3815  003A2A  30DF               	rrcf	479,w,c
  3816  003A2C  32E8               	rrcf	wreg,f,c
  3817  003A2E  0B0F               	andlw	15
  3818  003A30  6E10               	movwf	??_WriteMessageToFifo^(0+1280),c
  3819  003A32  6A11               	clrf	(??_WriteMessageToFifo+1)^(0+1280),c
  3820  003A34  0E01               	movlw	low _DLC_BYTES
  3821  003A36  2410               	addwf	??_WriteMessageToFifo^(0+1280),w,c
  3822  003A38  6EF6               	movwf	tblptrl,c
  3823  003A3A  0E38               	movlw	high _DLC_BYTES
  3824  003A3C  2011               	addwfc	(??_WriteMessageToFifo+1)^(0+1280),w,c
  3825  003A3E  6EF7               	movwf	tblptrh,c
  3826  003A40                     	if	1	;There are 3 active tblptr bytes
  3827  003A40  6AF8               	clrf	tblptru,c
  3828  003A42  0E00               	movlw	low (__mediumconst shr (0+16))
  3829  003A44  22F8               	addwfc	tblptru,f,c
  3830  003A46                     	endif
  3831  003A46  0008               	tblrd		*
  3832  003A48  50F5               	movf	tablat,w,c
  3833  003A4A  6E05               	movwf	memcpy@n^(0+1280),c
  3834  003A4C  6A06               	clrf	(memcpy@n+1)^(0+1280),c
  3835  003A4E  EC4D  F023         	call	_memcpy	;wreg free
  3836  003A52                     i2l395:
  3837  003A52  0012               	return		;funcret
  3838  003A54                     __end_of_WriteMessageToFifo:
  3839                           	callstack 0
  3840                           
  3841 ;; *************** function _ValidateTransmission *****************
  3842 ;; Defined at:
  3843 ;;		line 525 in file "mcc_generated_files/can1.c"
  3844 ;; Parameters:    Size  Location     Type
  3845 ;;  validChannel    1    wreg     unsigned char 
  3846 ;;  txCanMsg        2    1[COMRAM] PTR struct .
  3847 ;;		 -> C1__ReceiveFIFO1NotEmptyHandler@Return_Message(7), TU16A__C1_TransmitInterruptHandler@Transmission(7), 
  3848 ;; Auto vars:     Size  Location     Type
  3849 ;;  validChannel    1    6[COMRAM] unsigned char 
  3850 ;;  field           1    8[COMRAM] struct .
  3851 ;;  txMsgStatus     1    7[COMRAM] enum E22340
  3852 ;;  plsize          1    0        unsigned char 
  3853 ;; Return value:  Size  Location     Type
  3854 ;;                  1    wreg      enum E22340
  3855 ;; Registers used:
  3856 ;;		wreg, fsr2l, fsr2h, status,2, status,0, tblptrl, tblptrh, tblptru, prodl, prodh, cstack
  3857 ;; Tracked objects:
  3858 ;;		On entry : 0/0
  3859 ;;		On exit  : 0/0
  3860 ;;		Unchanged: 0/0
  3861 ;; Data sizes:     COMRAM   BANK5   BANK6   BANK7   BANK8   BANK9  BANK10  BANK11  BANK12  BANK13  BANK14  BANK15  BANK1
      +6  BANK17  BANK18  BANK19  BANK20  BANK21  BANK22  BANK23  BANK24  BANK25  BANK26  BANK27  BANK28  BANK29  BANK30  BANK3
      +1  BANK32  BANK33  BANK34  BANK35  BANK36  BANK37  BANK38  BANK39  BANK40  BANK41  BANK42  BANK43  BANK44  BANK45  BANK4
      +6  BANK47  BANK48  BANK49  BANK50  BANK51  BANK52  BANK53  BANK54  BANK55
  3862 ;;      Params:         2       0       0       0       0       0       0       0       0       0       0       0       
      +0       0       0       0       0       0       0       0       0       0       0       0       0       0       0       
      +0       0       0       0       0       0       0       0       0       0       0       0       0       0       0       
      +0       0       0       0       0       0       0       0       0       0
  3863 ;;      Locals:         3       0       0       0       0       0       0       0       0       0       0       0       
      +0       0       0       0       0       0       0       0       0       0       0       0       0       0       0       
      +0       0       0       0       0       0       0       0       0       0       0       0       0       0       0       
      +0       0       0       0       0       0       0       0       0       0
  3864 ;;      Temps:          3       0       0       0       0       0       0       0       0       0       0       0       
      +0       0       0       0       0       0       0       0       0       0       0       0       0       0       0       
      +0       0       0       0       0       0       0       0       0       0       0       0       0       0       0       
      +0       0       0       0       0       0       0       0       0       0
  3865 ;;      Totals:         8       0       0       0       0       0       0       0       0       0       0       0       
      +0       0       0       0       0       0       0       0       0       0       0       0       0       0       0       
      +0       0       0       0       0       0       0       0       0       0       0       0       0       0       0       
      +0       0       0       0       0       0       0       0       0       0
  3866 ;;Total ram usage:        8 bytes
  3867 ;; Hardware stack levels used: 1
  3868 ;; Hardware stack levels required when called: 1
  3869 ;; This function calls:
  3870 ;;		_GetTxFifoStatus
  3871 ;;		i2_CAN1_OperationModeGet
  3872 ;; This function is called by:
  3873 ;;		_CAN1_Transmit
  3874 ;; This function uses a non-reentrant model
  3875 ;;
  3876                           
  3877                           	psect	text34
  3878  004110                     __ptext34:
  3879                           	callstack 0
  3880  004110                     _ValidateTransmission:
  3881                           	callstack 118
  3882                           
  3883                           ;incstack = 0
  3884                           ;ValidateTransmission@validChannel stored from wreg
  3885  004110  6E07               	movwf	ValidateTransmission@validChannel^(0+1280),c
  3886  004112                     
  3887                           ;mcc_generated_files/can1.c: 525: static CAN_TX_MSG_REQUEST_STATUS ValidateTransmission(
      +                          uint8_t validChannel, CAN_MSG_OBJ *txCanMsg);mcc_generated_files/can1.c: 526: {;mcc_gene
      +                          rated_files/can1.c: 527:     CAN_TX_MSG_REQUEST_STATUS txMsgStatus = CAN_TX_MSG_REQUEST_
      +                          SUCCESS;
  3888  004112  0E00               	movlw	0
  3889  004114  6E08               	movwf	ValidateTransmission@txMsgStatus^(0+1280),c
  3890  004116                     
  3891                           ;mcc_generated_files/can1.c: 528:     CAN_MSG_FIELD field = txCanMsg->field;
  3892  004116  EE20 F004          	lfsr	2,4
  3893  00411A  5002               	movf	ValidateTransmission@txCanMsg^(0+1280),w,c
  3894  00411C  26D9               	addwf	fsr2l,f,c
  3895  00411E  5003               	movf	(ValidateTransmission@txCanMsg+1)^(0+1280),w,c
  3896  004120  22DA               	addwfc	fsr2h,f,c
  3897  004122  50DF               	movf	indf2,w,c
  3898  004124  6E09               	movwf	ValidateTransmission@field^(0+1280),c
  3899  004126                     
  3900                           ;mcc_generated_files/can1.c: 531:     if (CAN_BRS_MODE == field.brs && (CAN_NORMAL_2_0_M
      +                          ODE == CAN1_OperationModeGet()))
  3901  004126  AE09               	btfss	ValidateTransmission@field^(0+1280),7,c
  3902  004128  EF98  F020         	goto	i2u133_41
  3903  00412C  EF9A  F020         	goto	i2u133_40
  3904  004130                     i2u133_41:
  3905  004130  EFA5  F020         	goto	i2l2227
  3906  004134                     i2u133_40:
  3907  004134  EC34  F025         	call	i2_CAN1_OperationModeGet	;wreg free
  3908  004138  0A06               	xorlw	6
  3909  00413A  A4D8               	btfss	status,2,c
  3910  00413C  EFA2  F020         	goto	i2u134_41
  3911  004140  EFA4  F020         	goto	i2u134_40
  3912  004144                     i2u134_41:
  3913  004144  EFA5  F020         	goto	i2l2227
  3914  004148                     i2u134_40:
  3915  004148                     
  3916                           ;mcc_generated_files/can1.c: 532:     {;mcc_generated_files/can1.c: 533:         txMsgSt
      +                          atus |= CAN_TX_MSG_REQUEST_BRS_ERROR;
  3917  004148  8208               	bsf	ValidateTransmission@txMsgStatus^(0+1280),1,c
  3918  00414A                     i2l2227:
  3919                           
  3920                           ;mcc_generated_files/can1.c: 536:     if (field.dlc > DLC_8 && (CAN_2_0_FORMAT == field.
      +                          formatType || CAN_NORMAL_2_0_MODE == CAN1_OperationModeGet()))
  3921  00414A  3009               	rrcf	ValidateTransmission@field^(0+1280),w,c
  3922  00414C  32E8               	rrcf	wreg,f,c
  3923  00414E  0B0F               	andlw	15
  3924  004150  6E04               	movwf	??_ValidateTransmission^(0+1280),c
  3925  004152  0E08               	movlw	8
  3926  004154  6404               	cpfsgt	??_ValidateTransmission^(0+1280),c
  3927  004156  EFAF  F020         	goto	i2u135_41
  3928  00415A  EFB1  F020         	goto	i2u135_40
  3929  00415E                     i2u135_41:
  3930  00415E  EFC3  F020         	goto	i2l2235
  3931  004162                     i2u135_40:
  3932  004162  AC09               	btfss	ValidateTransmission@field^(0+1280),6,c
  3933  004164  EFB6  F020         	goto	i2u136_41
  3934  004168  EFB8  F020         	goto	i2u136_40
  3935  00416C                     i2u136_41:
  3936  00416C  EFC2  F020         	goto	i2l2233
  3937  004170                     i2u136_40:
  3938  004170  EC34  F025         	call	i2_CAN1_OperationModeGet	;wreg free
  3939  004174  0A06               	xorlw	6
  3940  004176  A4D8               	btfss	status,2,c
  3941  004178  EFC0  F020         	goto	i2u137_41
  3942  00417C  EFC2  F020         	goto	i2u137_40
  3943  004180                     i2u137_41:
  3944  004180  EFC3  F020         	goto	i2l2235
  3945  004184                     i2u137_40:
  3946  004184                     i2l2233:
  3947                           
  3948                           ;mcc_generated_files/can1.c: 537:     {;mcc_generated_files/can1.c: 538:         txMsgSt
      +                          atus |= CAN_TX_MSG_REQUEST_DLC_EXCEED_ERROR;
  3949  004184  8008               	bsf	ValidateTransmission@txMsgStatus^(0+1280),0,c
  3950  004186                     i2l2235:
  3951                           
  3952                           ;mcc_generated_files/can1.c: 541:     if ((DLC_BYTES[(field.dlc)]) > ((DLC_BYTES[(8u + (
      +                          plsize))])))
  3953  004186  0E09               	movlw	low (_DLC_BYTES+8)
  3954  004188  6EF6               	movwf	tblptrl,c
  3955  00418A  0E38               	movlw	high (_DLC_BYTES+8)
  3956  00418C  6EF7               	movwf	tblptrh,c
  3957  00418E                     	if	0	;tblptru may be non-zero
  3958  00418E                     	endif
  3959  00418E                     	if	1	;Program memory is > 0xFFFF, there are 3 active tblptr bytes
  3960  00418E  0E00               	movlw	low (__mediumconst shr (0+16))
  3961  004190  6EF8               	movwf	tblptru,c
  3962  004192                     	endif
  3963  004192  0008               	tblrd		*
  3964  004194  0061 F3D4  F504    	movff	tablat,??_ValidateTransmission
  3965  00419A  3009               	rrcf	ValidateTransmission@field^(0+1280),w,c
  3966  00419C  32E8               	rrcf	wreg,f,c
  3967  00419E  0B0F               	andlw	15
  3968  0041A0  6E05               	movwf	(??_ValidateTransmission+1)^(0+1280),c
  3969  0041A2  6A06               	clrf	(??_ValidateTransmission+2)^(0+1280),c
  3970  0041A4  0E01               	movlw	low _DLC_BYTES
  3971  0041A6  2405               	addwf	(??_ValidateTransmission+1)^(0+1280),w,c
  3972  0041A8  6EF6               	movwf	tblptrl,c
  3973  0041AA  0E38               	movlw	high _DLC_BYTES
  3974  0041AC  2006               	addwfc	(??_ValidateTransmission+2)^(0+1280),w,c
  3975  0041AE  6EF7               	movwf	tblptrh,c
  3976  0041B0                     	if	1	;There are 3 active tblptr bytes
  3977  0041B0  6AF8               	clrf	tblptru,c
  3978  0041B2  0E00               	movlw	low (__mediumconst shr (0+16))
  3979  0041B4  22F8               	addwfc	tblptru,f,c
  3980  0041B6                     	endif
  3981  0041B6  0008               	tblrd		*
  3982  0041B8  50F5               	movf	tablat,w,c
  3983  0041BA  5C04               	subwf	??_ValidateTransmission^(0+1280),w,c
  3984  0041BC  B0D8               	btfsc	status,0,c
  3985  0041BE  EFE3  F020         	goto	i2u138_41
  3986  0041C2  EFE5  F020         	goto	i2u138_40
  3987  0041C6                     i2u138_41:
  3988  0041C6  EFE6  F020         	goto	i2l2239
  3989  0041CA                     i2u138_40:
  3990  0041CA                     
  3991                           ;mcc_generated_files/can1.c: 542:     {;mcc_generated_files/can1.c: 543:         txMsgSt
      +                          atus |= CAN_TX_MSG_REQUEST_DLC_EXCEED_ERROR;
  3992  0041CA  8008               	bsf	ValidateTransmission@txMsgStatus^(0+1280),0,c
  3993  0041CC                     i2l2239:
  3994                           
  3995                           ;mcc_generated_files/can1.c: 546:     if (CAN_TX_FIFO_FULL == GetTxFifoStatus(validChann
      +                          el))
  3996  0041CC  5007               	movf	ValidateTransmission@validChannel^(0+1280),w,c
  3997  0041CE  ECBB  F024         	call	_GetTxFifoStatus
  3998  0041D2  0900               	iorlw	0
  3999  0041D4  A4D8               	btfss	status,2,c
  4000  0041D6  EFEF  F020         	goto	i2u139_41
  4001  0041DA  EFF1  F020         	goto	i2u139_40
  4002  0041DE                     i2u139_41:
  4003  0041DE  EFF3  F020         	goto	i2l2243
  4004  0041E2                     i2u139_40:
  4005  0041E2                     
  4006                           ;mcc_generated_files/can1.c: 547:     {;mcc_generated_files/can1.c: 548:         txMsgSt
      +                          atus |= CAN_TX_MSG_REQUEST_FIFO_FULL;
  4007  0041E2  0E03               	movlw	3
  4008  0041E4  1208               	iorwf	ValidateTransmission@txMsgStatus^(0+1280),f,c
  4009  0041E6                     i2l2243:
  4010                           
  4011                           ;mcc_generated_files/can1.c: 551:     return txMsgStatus;
  4012  0041E6  5008               	movf	ValidateTransmission@txMsgStatus^(0+1280),w,c
  4013  0041E8  0012               	return		;funcret
  4014  0041EA                     __end_of_ValidateTransmission:
  4015                           	callstack 0
  4016                           
  4017 ;; *************** function i2_CAN1_OperationModeGet *****************
  4018 ;; Defined at:
  4019 ;;		line 315 in file "mcc_generated_files/can1.c"
  4020 ;; Parameters:    Size  Location     Type
  4021 ;;		None
  4022 ;; Auto vars:     Size  Location     Type
  4023 ;;		None
  4024 ;; Return value:  Size  Location     Type
  4025 ;;                  1    wreg      enum E22346
  4026 ;; Registers used:
  4027 ;;		wreg, status,2, status,0
  4028 ;; Tracked objects:
  4029 ;;		On entry : 0/0
  4030 ;;		On exit  : 0/0
  4031 ;;		Unchanged: 0/0
  4032 ;; Data sizes:     COMRAM   BANK5   BANK6   BANK7   BANK8   BANK9  BANK10  BANK11  BANK12  BANK13  BANK14  BANK15  BANK1
      +6  BANK17  BANK18  BANK19  BANK20  BANK21  BANK22  BANK23  BANK24  BANK25  BANK26  BANK27  BANK28  BANK29  BANK30  BANK3
      +1  BANK32  BANK33  BANK34  BANK35  BANK36  BANK37  BANK38  BANK39  BANK40  BANK41  BANK42  BANK43  BANK44  BANK45  BANK4
      +6  BANK47  BANK48  BANK49  BANK50  BANK51  BANK52  BANK53  BANK54  BANK55
  4033 ;;      Params:         0       0       0       0       0       0       0       0       0       0       0       0       
      +0       0       0       0       0       0       0       0       0       0       0       0       0       0       0       
      +0       0       0       0       0       0       0       0       0       0       0       0       0       0       0       
      +0       0       0       0       0       0       0       0       0       0
  4034 ;;      Locals:         0       0       0       0       0       0       0       0       0       0       0       0       
      +0       0       0       0       0       0       0       0       0       0       0       0       0       0       0       
      +0       0       0       0       0       0       0       0       0       0       0       0       0       0       0       
      +0       0       0       0       0       0       0       0       0       0
  4035 ;;      Temps:          0       0       0       0       0       0       0       0       0       0       0       0       
      +0       0       0       0       0       0       0       0       0       0       0       0       0       0       0       
      +0       0       0       0       0       0       0       0       0       0       0       0       0       0       0       
      +0       0       0       0       0       0       0       0       0       0
  4036 ;;      Totals:         0       0       0       0       0       0       0       0       0       0       0       0       
      +0       0       0       0       0       0       0       0       0       0       0       0       0       0       0       
      +0       0       0       0       0       0       0       0       0       0       0       0       0       0       0       
      +0       0       0       0       0       0       0       0       0       0
  4037 ;;Total ram usage:        0 bytes
  4038 ;; Hardware stack levels used: 1
  4039 ;; This function calls:
  4040 ;;		Nothing
  4041 ;; This function is called by:
  4042 ;;		_ValidateTransmission
  4043 ;; This function uses a non-reentrant model
  4044 ;;
  4045                           
  4046                           	psect	text35
  4047  004A68                     __ptext35:
  4048                           	callstack 0
  4049  004A68                     i2_CAN1_OperationModeGet:
  4050                           	callstack 118
  4051  004A68                     
  4052                           ;mcc_generated_files/can1.c: 317:     return C1CONUbits.OPMOD;
  4053  004A68  0101               	movlb	1	; () banked
  4054  004A6A  3902               	swapf	2,w,b	;volatile
  4055  004A6C  32E8               	rrcf	wreg,f,c
  4056  004A6E  0B07               	andlw	7
  4057  004A70                     
  4058                           ; BSR set to: 1
  4059  004A70  0012               	return		;funcret
  4060  004A72                     __end_ofi2_CAN1_OperationModeGet:
  4061                           	callstack 0
  4062                           
  4063 ;; *************** function _GetTxFifoStatus *****************
  4064 ;; Defined at:
  4065 ;;		line 479 in file "mcc_generated_files/can1.c"
  4066 ;; Parameters:    Size  Location     Type
  4067 ;;  validChannel    1    wreg     unsigned char 
  4068 ;; Auto vars:     Size  Location     Type
  4069 ;;  validChannel    1    0[COMRAM] unsigned char 
  4070 ;; Return value:  Size  Location     Type
  4071 ;;                  1    wreg      enum E22361
  4072 ;; Registers used:
  4073 ;;		wreg, fsr2l, fsr2h, status,2, status,0, prodl, prodh
  4074 ;; Tracked objects:
  4075 ;;		On entry : 0/0
  4076 ;;		On exit  : 0/0
  4077 ;;		Unchanged: 0/0
  4078 ;; Data sizes:     COMRAM   BANK5   BANK6   BANK7   BANK8   BANK9  BANK10  BANK11  BANK12  BANK13  BANK14  BANK15  BANK1
      +6  BANK17  BANK18  BANK19  BANK20  BANK21  BANK22  BANK23  BANK24  BANK25  BANK26  BANK27  BANK28  BANK29  BANK30  BANK3
      +1  BANK32  BANK33  BANK34  BANK35  BANK36  BANK37  BANK38  BANK39  BANK40  BANK41  BANK42  BANK43  BANK44  BANK45  BANK4
      +6  BANK47  BANK48  BANK49  BANK50  BANK51  BANK52  BANK53  BANK54  BANK55
  4079 ;;      Params:         0       0       0       0       0       0       0       0       0       0       0       0       
      +0       0       0       0       0       0       0       0       0       0       0       0       0       0       0       
      +0       0       0       0       0       0       0       0       0       0       0       0       0       0       0       
      +0       0       0       0       0       0       0       0       0       0
  4080 ;;      Locals:         1       0       0       0       0       0       0       0       0       0       0       0       
      +0       0       0       0       0       0       0       0       0       0       0       0       0       0       0       
      +0       0       0       0       0       0       0       0       0       0       0       0       0       0       0       
      +0       0       0       0       0       0       0       0       0       0
  4081 ;;      Temps:          0       0       0       0       0       0       0       0       0       0       0       0       
      +0       0       0       0       0       0       0       0       0       0       0       0       0       0       0       
      +0       0       0       0       0       0       0       0       0       0       0       0       0       0       0       
      +0       0       0       0       0       0       0       0       0       0
  4082 ;;      Totals:         1       0       0       0       0       0       0       0       0       0       0       0       
      +0       0       0       0       0       0       0       0       0       0       0       0       0       0       0       
      +0       0       0       0       0       0       0       0       0       0       0       0       0       0       0       
      +0       0       0       0       0       0       0       0       0       0
  4083 ;;Total ram usage:        1 bytes
  4084 ;; Hardware stack levels used: 1
  4085 ;; This function calls:
  4086 ;;		Nothing
  4087 ;; This function is called by:
  4088 ;;		_ValidateTransmission
  4089 ;;		_CAN1_TransmitFIFOStatusGet
  4090 ;; This function uses a non-reentrant model
  4091 ;;
  4092                           
  4093                           	psect	text36
  4094  004976                     __ptext36:
  4095                           	callstack 0
  4096  004976                     _GetTxFifoStatus:
  4097                           	callstack 119
  4098                           
  4099                           ; BSR set to: 1
  4100                           ;incstack = 0
  4101                           ;GetTxFifoStatus@validChannel stored from wreg
  4102  004976  6E01               	movwf	GetTxFifoStatus@validChannel^(0+1280),c
  4103  004978                     
  4104                           ;mcc_generated_files/can1.c: 479: static CAN_TX_FIFO_STATUS GetTxFifoStatus(uint8_t vali
      +                          dChannel);mcc_generated_files/can1.c: 480: {;mcc_generated_files/can1.c: 481:     return
      +                           (FIFO[validChannel].STAL & 0x1);
  4105  004978  5001               	movf	GetTxFifoStatus@validChannel^(0+1280),w,c
  4106  00497A  0D0C               	mullw	12
  4107  00497C  0E54               	movlw	84
  4108  00497E  24F3               	addwf	243,w,c
  4109  004980  6ED9               	movwf	fsr2l,c
  4110  004982  0E01               	movlw	1
  4111  004984  20F4               	addwfc	prodh,w,c
  4112  004986  6EDA               	movwf	fsr2h,c
  4113  004988  50DF               	movf	indf2,w,c
  4114  00498A  0B01               	andlw	1
  4115  00498C  0012               	return		;funcret
  4116  00498E                     __end_of_GetTxFifoStatus:
  4117                           	callstack 0
  4118                           
  4119 ;; *************** function _CAN1_ReceivedMessageCountGet *****************
  4120 ;; Defined at:
  4121 ;;		line 431 in file "mcc_generated_files/can1.c"
  4122 ;; Parameters:    Size  Location     Type
  4123 ;;		None
  4124 ;; Auto vars:     Size  Location     Type
  4125 ;;  fifoHead        1    8[COMRAM] unsigned char 
  4126 ;;  fifoTail        1    7[COMRAM] unsigned char 
  4127 ;;  fifoDepth       1    6[COMRAM] unsigned char 
  4128 ;;  numOfMsg        1    3[COMRAM] unsigned char 
  4129 ;;  channel         1    5[COMRAM] enum E22386
  4130 ;;  rxMsgStatus     1    4[COMRAM] enum E22462
  4131 ;;  index           1    9[COMRAM] unsigned char 
  4132 ;;  totalMsgObj     1    2[COMRAM] unsigned char 
  4133 ;; Return value:  Size  Location     Type
  4134 ;;                  1    wreg      unsigned char 
  4135 ;; Registers used:
  4136 ;;		wreg, fsr2l, fsr2h, status,2, status,0, prodl, prodh, cstack
  4137 ;; Tracked objects:
  4138 ;;		On entry : 0/0
  4139 ;;		On exit  : 0/0
  4140 ;;		Unchanged: 0/0
  4141 ;; Data sizes:     COMRAM   BANK5   BANK6   BANK7   BANK8   BANK9  BANK10  BANK11  BANK12  BANK13  BANK14  BANK15  BANK1
      +6  BANK17  BANK18  BANK19  BANK20  BANK21  BANK22  BANK23  BANK24  BANK25  BANK26  BANK27  BANK28  BANK29  BANK30  BANK3
      +1  BANK32  BANK33  BANK34  BANK35  BANK36  BANK37  BANK38  BANK39  BANK40  BANK41  BANK42  BANK43  BANK44  BANK45  BANK4
      +6  BANK47  BANK48  BANK49  BANK50  BANK51  BANK52  BANK53  BANK54  BANK55
  4142 ;;      Params:         0       0       0       0       0       0       0       0       0       0       0       0       
      +0       0       0       0       0       0       0       0       0       0       0       0       0       0       0       
      +0       0       0       0       0       0       0       0       0       0       0       0       0       0       0       
      +0       0       0       0       0       0       0       0       0       0
  4143 ;;      Locals:         8       0       0       0       0       0       0       0       0       0       0       0       
      +0       0       0       0       0       0       0       0       0       0       0       0       0       0       0       
      +0       0       0       0       0       0       0       0       0       0       0       0       0       0       0       
      +0       0       0       0       0       0       0       0       0       0
  4144 ;;      Temps:          0       0       0       0       0       0       0       0       0       0       0       0       
      +0       0       0       0       0       0       0       0       0       0       0       0       0       0       0       
      +0       0       0       0       0       0       0       0       0       0       0       0       0       0       0       
      +0       0       0       0       0       0       0       0       0       0
  4145 ;;      Totals:         8       0       0       0       0       0       0       0       0       0       0       0       
      +0       0       0       0       0       0       0       0       0       0       0       0       0       0       0       
      +0       0       0       0       0       0       0       0       0       0       0       0       0       0       0       
      +0       0       0       0       0       0       0       0       0       0
  4146 ;;Total ram usage:        8 bytes
  4147 ;; Hardware stack levels used: 1
  4148 ;; Hardware stack levels required when called: 1
  4149 ;; This function calls:
  4150 ;;		_GetRxFifoDepth
  4151 ;;		_GetRxFifoStatus
  4152 ;; This function is called by:
  4153 ;;		_C1__ReceiveFIFO1NotEmptyHandler
  4154 ;; This function uses a non-reentrant model
  4155 ;;
  4156                           
  4157                           	psect	text37
  4158  0041EA                     __ptext37:
  4159                           	callstack 0
  4160  0041EA                     _CAN1_ReceivedMessageCountGet:
  4161                           	callstack 119
  4162  0041EA                     
  4163                           ;mcc_generated_files/can1.c: 433:     uint8_t index, totalMsgObj = 0;
  4164  0041EA  0E00               	movlw	0
  4165  0041EC  6E03               	movwf	CAN1_ReceivedMessageCountGet@totalMsgObj^(0+1280),c
  4166                           
  4167                           ;mcc_generated_files/can1.c: 435:     for (index = 0; index < (1U); index++)
  4168  0041EE  0E00               	movlw	0
  4169  0041F0  6E0A               	movwf	CAN1_ReceivedMessageCountGet@index^(0+1280),c
  4170  0041F2                     i2l2331:
  4171                           
  4172                           ;mcc_generated_files/can1.c: 436:     {;mcc_generated_files/can1.c: 437:         CAN1_RX
      +                          _FIFO_CHANNELS channel = rxFifos[index].channel;
  4173  0041F2  500A               	movf	CAN1_ReceivedMessageCountGet@index^(0+1280),w,c
  4174  0041F4  0D02               	mullw	2
  4175  0041F6  0E78               	movlw	low _rxFifos
  4176  0041F8  24F3               	addwf	243,w,c
  4177  0041FA  6ED9               	movwf	fsr2l,c
  4178  0041FC  0E05               	movlw	high _rxFifos
  4179  0041FE  20F4               	addwfc	prodh,w,c
  4180  004200  6EDA               	movwf	fsr2h,c
  4181  004202  50DF               	movf	indf2,w,c
  4182  004204  6E06               	movwf	CAN1_ReceivedMessageCountGet@channel^(0+1280),c
  4183  004206                     
  4184                           ;mcc_generated_files/can1.c: 438:         CAN_RX_FIFO_STATUS rxMsgStatus = GetRxFifoStat
      +                          us(channel);
  4185  004206  5006               	movf	CAN1_ReceivedMessageCountGet@channel^(0+1280),w,c
  4186  004208  ECC7  F024         	call	_GetRxFifoStatus
  4187  00420C  6E05               	movwf	CAN1_ReceivedMessageCountGet@rxMsgStatus^(0+1280),c
  4188  00420E                     
  4189                           ;mcc_generated_files/can1.c: 440:         if (CAN_RX_MSG_AVAILABLE == (rxMsgStatus & CAN
      +                          _RX_MSG_AVAILABLE))
  4190  00420E  A005               	btfss	CAN1_ReceivedMessageCountGet@rxMsgStatus^(0+1280),0,c
  4191  004210  EF0C  F021         	goto	i2u148_41
  4192  004214  EF0E  F021         	goto	i2u148_40
  4193  004218                     i2u148_41:
  4194  004218  EF4F  F021         	goto	i2l2355
  4195  00421C                     i2u148_40:
  4196  00421C                     
  4197                           ;mcc_generated_files/can1.c: 441:         {;mcc_generated_files/can1.c: 442:            
      +                           uint8_t numOfMsg, fifoDepth = GetRxFifoDepth(channel);
  4198  00421C  5006               	movf	CAN1_ReceivedMessageCountGet@channel^(0+1280),w,c
  4199  00421E  EC9F  F024         	call	_GetRxFifoDepth
  4200  004222  6E07               	movwf	CAN1_ReceivedMessageCountGet@fifoDepth^(0+1280),c
  4201  004224                     
  4202                           ;mcc_generated_files/can1.c: 444:             if (CAN_RX_MSG_OVERFLOW == (rxMsgStatus & 
      +                          CAN_RX_MSG_OVERFLOW))
  4203  004224  A605               	btfss	CAN1_ReceivedMessageCountGet@rxMsgStatus^(0+1280),3,c
  4204  004226  EF17  F021         	goto	i2u149_41
  4205  00422A  EF19  F021         	goto	i2u149_40
  4206  00422E                     i2u149_41:
  4207  00422E  EF1D  F021         	goto	i2l2343
  4208  004232                     i2u149_40:
  4209  004232                     i2l2341:
  4210                           
  4211                           ;mcc_generated_files/can1.c: 445:             {;mcc_generated_files/can1.c: 446:        
      +                                   numOfMsg = fifoDepth;
  4212  004232  C507  F504         	movff	CAN1_ReceivedMessageCountGet@fifoDepth,CAN1_ReceivedMessageCountGet@numOfMsg
  4213                           
  4214                           ;mcc_generated_files/can1.c: 447:             }
  4215  004236  EF4D  F021         	goto	i2l2353
  4216  00423A                     i2l2343:
  4217                           
  4218                           ;mcc_generated_files/can1.c: 449:             {;mcc_generated_files/can1.c: 450:        
      +                                   uint8_t fifoTail = FIFO[channel].STAH & 0x1F;
  4219  00423A  5006               	movf	CAN1_ReceivedMessageCountGet@channel^(0+1280),w,c
  4220  00423C  0D0C               	mullw	12
  4221  00423E  0E55               	movlw	85
  4222  004240  24F3               	addwf	243,w,c
  4223  004242  6ED9               	movwf	fsr2l,c
  4224  004244  0E01               	movlw	1
  4225  004246  20F4               	addwfc	prodh,w,c
  4226  004248  6EDA               	movwf	fsr2h,c
  4227  00424A  50DF               	movf	indf2,w,c
  4228  00424C  0B1F               	andlw	31
  4229  00424E  6E08               	movwf	CAN1_ReceivedMessageCountGet@fifoTail^(0+1280),c
  4230                           
  4231                           ;mcc_generated_files/can1.c: 451:                 uint8_t fifoHead = rxFifos[index].fifo
      +                          Head;
  4232  004250  500A               	movf	CAN1_ReceivedMessageCountGet@index^(0+1280),w,c
  4233  004252  0D02               	mullw	2
  4234  004254  0E79               	movlw	low (_rxFifos+1)
  4235  004256  24F3               	addwf	243,w,c
  4236  004258  6ED9               	movwf	fsr2l,c
  4237  00425A  0E05               	movlw	high (_rxFifos+1)
  4238  00425C  20F4               	addwfc	prodh,w,c
  4239  00425E  6EDA               	movwf	fsr2h,c
  4240  004260  50DF               	movf	indf2,w,c
  4241  004262  6E09               	movwf	CAN1_ReceivedMessageCountGet@fifoHead^(0+1280),c
  4242  004264                     
  4243                           ;mcc_generated_files/can1.c: 453:                 if (fifoTail < fifoHead)
  4244  004264  5009               	movf	CAN1_ReceivedMessageCountGet@fifoHead^(0+1280),w,c
  4245  004266  5C08               	subwf	CAN1_ReceivedMessageCountGet@fifoTail^(0+1280),w,c
  4246  004268  B0D8               	btfsc	status,0,c
  4247  00426A  EF39  F021         	goto	i2u150_41
  4248  00426E  EF3B  F021         	goto	i2u150_40
  4249  004272                     i2u150_41:
  4250  004272  EF41  F021         	goto	i2l2349
  4251  004276                     i2u150_40:
  4252  004276                     
  4253                           ;mcc_generated_files/can1.c: 454:                 {;mcc_generated_files/can1.c: 455:    
      +                                           numOfMsg = ((fifoTail + fifoDepth) - fifoHead);
  4254  004276  5009               	movf	CAN1_ReceivedMessageCountGet@fifoHead^(0+1280),w,c
  4255  004278  5C08               	subwf	CAN1_ReceivedMessageCountGet@fifoTail^(0+1280),w,c
  4256  00427A  2407               	addwf	CAN1_ReceivedMessageCountGet@fifoDepth^(0+1280),w,c
  4257  00427C  6E04               	movwf	CAN1_ReceivedMessageCountGet@numOfMsg^(0+1280),c
  4258                           
  4259                           ;mcc_generated_files/can1.c: 456:                 }
  4260  00427E  EF4D  F021         	goto	i2l2353
  4261  004282                     i2l2349:
  4262  004282  5008               	movf	CAN1_ReceivedMessageCountGet@fifoTail^(0+1280),w,c
  4263  004284  5C09               	subwf	CAN1_ReceivedMessageCountGet@fifoHead^(0+1280),w,c
  4264  004286  B0D8               	btfsc	status,0,c
  4265  004288  EF48  F021         	goto	i2u151_41
  4266  00428C  EF4A  F021         	goto	i2u151_40
  4267  004290                     i2u151_41:
  4268  004290  EF19  F021         	goto	i2l2341
  4269  004294                     i2u151_40:
  4270  004294                     
  4271                           ;mcc_generated_files/can1.c: 458:                 {;mcc_generated_files/can1.c: 459:    
      +                                           numOfMsg = fifoTail - fifoHead;
  4272  004294  5009               	movf	CAN1_ReceivedMessageCountGet@fifoHead^(0+1280),w,c
  4273  004296  5C08               	subwf	CAN1_ReceivedMessageCountGet@fifoTail^(0+1280),w,c
  4274  004298  6E04               	movwf	CAN1_ReceivedMessageCountGet@numOfMsg^(0+1280),c
  4275  00429A                     i2l2353:
  4276                           
  4277                           ;mcc_generated_files/can1.c: 467:             totalMsgObj += numOfMsg;
  4278  00429A  5004               	movf	CAN1_ReceivedMessageCountGet@numOfMsg^(0+1280),w,c
  4279  00429C  2603               	addwf	CAN1_ReceivedMessageCountGet@totalMsgObj^(0+1280),f,c
  4280  00429E                     i2l2355:
  4281                           
  4282                           ;mcc_generated_files/can1.c: 469:     }
  4283  00429E  2A0A               	incf	CAN1_ReceivedMessageCountGet@index^(0+1280),f,c
  4284  0042A0  500A               	movf	CAN1_ReceivedMessageCountGet@index^(0+1280),w,c
  4285  0042A2  B4D8               	btfsc	status,2,c
  4286  0042A4  EF56  F021         	goto	i2u152_41
  4287  0042A8  EF58  F021         	goto	i2u152_40
  4288  0042AC                     i2u152_41:
  4289  0042AC  EFF9  F020         	goto	i2l2331
  4290  0042B0                     i2u152_40:
  4291  0042B0                     
  4292                           ;mcc_generated_files/can1.c: 471:     return totalMsgObj;
  4293  0042B0  5003               	movf	CAN1_ReceivedMessageCountGet@totalMsgObj^(0+1280),w,c
  4294  0042B2  0012               	return		;funcret
  4295  0042B4                     __end_of_CAN1_ReceivedMessageCountGet:
  4296                           	callstack 0
  4297                           
  4298 ;; *************** function _CAN1_ReceiveFrom *****************
  4299 ;; Defined at:
  4300 ;;		line 414 in file "mcc_generated_files/can1.c"
  4301 ;; Parameters:    Size  Location     Type
  4302 ;;  channel         1    wreg     const enum E22386
  4303 ;;  rxCanMsg        2   32[COMRAM] PTR struct .
  4304 ;;		 -> C1__ReceiveFIFO1NotEmptyHandler@Currently_Processing(7), 
  4305 ;; Auto vars:     Size  Location     Type
  4306 ;;  channel         1   36[COMRAM] const enum E22386
  4307 ;;  index           1   37[COMRAM] unsigned char 
  4308 ;;  status          1   35[COMRAM] _Bool 
  4309 ;; Return value:  Size  Location     Type
  4310 ;;                  1    wreg      _Bool 
  4311 ;; Registers used:
  4312 ;;		wreg, fsr2l, fsr2h, status,2, status,0, tblptrl, tblptrh, tblptru, prodl, prodh, cstack
  4313 ;; Tracked objects:
  4314 ;;		On entry : 0/0
  4315 ;;		On exit  : 0/0
  4316 ;;		Unchanged: 0/0
  4317 ;; Data sizes:     COMRAM   BANK5   BANK6   BANK7   BANK8   BANK9  BANK10  BANK11  BANK12  BANK13  BANK14  BANK15  BANK1
      +6  BANK17  BANK18  BANK19  BANK20  BANK21  BANK22  BANK23  BANK24  BANK25  BANK26  BANK27  BANK28  BANK29  BANK30  BANK3
      +1  BANK32  BANK33  BANK34  BANK35  BANK36  BANK37  BANK38  BANK39  BANK40  BANK41  BANK42  BANK43  BANK44  BANK45  BANK4
      +6  BANK47  BANK48  BANK49  BANK50  BANK51  BANK52  BANK53  BANK54  BANK55
  4318 ;;      Params:         2       0       0       0       0       0       0       0       0       0       0       0       
      +0       0       0       0       0       0       0       0       0       0       0       0       0       0       0       
      +0       0       0       0       0       0       0       0       0       0       0       0       0       0       0       
      +0       0       0       0       0       0       0       0       0       0
  4319 ;;      Locals:         3       0       0       0       0       0       0       0       0       0       0       0       
      +0       0       0       0       0       0       0       0       0       0       0       0       0       0       0       
      +0       0       0       0       0       0       0       0       0       0       0       0       0       0       0       
      +0       0       0       0       0       0       0       0       0       0
  4320 ;;      Temps:          1       0       0       0       0       0       0       0       0       0       0       0       
      +0       0       0       0       0       0       0       0       0       0       0       0       0       0       0       
      +0       0       0       0       0       0       0       0       0       0       0       0       0       0       0       
      +0       0       0       0       0       0       0       0       0       0
  4321 ;;      Totals:         6       0       0       0       0       0       0       0       0       0       0       0       
      +0       0       0       0       0       0       0       0       0       0       0       0       0       0       0       
      +0       0       0       0       0       0       0       0       0       0       0       0       0       0       0       
      +0       0       0       0       0       0       0       0       0       0
  4322 ;;Total ram usage:        6 bytes
  4323 ;; Hardware stack levels used: 1
  4324 ;; Hardware stack levels required when called: 3
  4325 ;; This function calls:
  4326 ;;		_Receive
  4327 ;; This function is called by:
  4328 ;;		_C1__ReceiveFIFO1NotEmptyHandler
  4329 ;; This function uses a non-reentrant model
  4330 ;;
  4331                           
  4332                           	psect	text38
  4333  004640                     __ptext38:
  4334                           	callstack 0
  4335  004640                     _CAN1_ReceiveFrom:
  4336                           	callstack 117
  4337                           
  4338                           ;incstack = 0
  4339                           ;CAN1_ReceiveFrom@channel stored from wreg
  4340  004640  6E25               	movwf	CAN1_ReceiveFrom@channel^(0+1280),c
  4341  004642                     
  4342                           ;mcc_generated_files/can1.c: 414: _Bool CAN1_ReceiveFrom(const CAN1_RX_FIFO_CHANNELS cha
      +                          nnel, CAN_MSG_OBJ *rxCanMsg);mcc_generated_files/can1.c: 415: {;mcc_generated_files/can1
      +                          .c: 416:     uint8_t index;;mcc_generated_files/can1.c: 417:     _Bool status = 0;
  4343  004642  0E00               	movlw	0
  4344  004644  6E24               	movwf	CAN1_ReceiveFrom@status^(0+1280),c
  4345                           
  4346                           ;mcc_generated_files/can1.c: 419:     for (index = 0; index < (1U); index++)
  4347  004646  0E00               	movlw	0
  4348  004648  6E26               	movwf	CAN1_ReceiveFrom@index^(0+1280),c
  4349  00464A                     i2l2315:
  4350                           
  4351                           ;mcc_generated_files/can1.c: 420:     {;mcc_generated_files/can1.c: 421:         if (cha
      +                          nnel == rxFifos[index].channel)
  4352  00464A  5026               	movf	CAN1_ReceiveFrom@index^(0+1280),w,c
  4353  00464C  0D02               	mullw	2
  4354  00464E  0E78               	movlw	low _rxFifos
  4355  004650  24F3               	addwf	243,w,c
  4356  004652  6ED9               	movwf	fsr2l,c
  4357  004654  0E05               	movlw	high _rxFifos
  4358  004656  20F4               	addwfc	prodh,w,c
  4359  004658  6EDA               	movwf	fsr2h,c
  4360  00465A  5025               	movf	CAN1_ReceiveFrom@channel^(0+1280),w,c
  4361  00465C  18DE               	xorwf	postinc2,w,c
  4362  00465E  A4D8               	btfss	status,2,c
  4363  004660  EF34  F023         	goto	i2u146_41
  4364  004664  EF36  F023         	goto	i2u146_40
  4365  004668                     i2u146_41:
  4366  004668  EF42  F023         	goto	i2l2319
  4367  00466C                     i2u146_40:
  4368  00466C                     
  4369                           ;mcc_generated_files/can1.c: 422:         {;mcc_generated_files/can1.c: 423:            
      +                           status = Receive(index, channel, rxCanMsg);
  4370  00466C  C525  F517         	movff	CAN1_ReceiveFrom@channel,Receive@channel
  4371  004670  C521  F518         	movff	CAN1_ReceiveFrom@rxCanMsg,Receive@rxCanMsg
  4372  004674  C522  F519         	movff	CAN1_ReceiveFrom@rxCanMsg+1,Receive@rxCanMsg+1
  4373  004678  5026               	movf	CAN1_ReceiveFrom@index^(0+1280),w,c
  4374  00467A  EC12  F020         	call	_Receive
  4375  00467E  6E24               	movwf	CAN1_ReceiveFrom@status^(0+1280),c
  4376                           
  4377                           ;mcc_generated_files/can1.c: 424:             break;
  4378  004680  EF4B  F023         	goto	i2l2323
  4379  004684                     i2l2319:
  4380                           
  4381                           ;mcc_generated_files/can1.c: 426:     }
  4382  004684  2A26               	incf	CAN1_ReceiveFrom@index^(0+1280),f,c
  4383  004686  5026               	movf	CAN1_ReceiveFrom@index^(0+1280),w,c
  4384  004688  B4D8               	btfsc	status,2,c
  4385  00468A  EF49  F023         	goto	i2u147_41
  4386  00468E  EF4B  F023         	goto	i2u147_40
  4387  004692                     i2u147_41:
  4388  004692  EF25  F023         	goto	i2l2315
  4389  004696                     i2u147_40:
  4390  004696                     i2l2323:
  4391                           
  4392                           ;mcc_generated_files/can1.c: 428:     return status;
  4393  004696  5024               	movf	CAN1_ReceiveFrom@status^(0+1280),w,c
  4394  004698  0012               	return		;funcret
  4395  00469A                     __end_of_CAN1_ReceiveFrom:
  4396                           	callstack 0
  4397                           
  4398 ;; *************** function _Receive *****************
  4399 ;; Defined at:
  4400 ;;		line 364 in file "mcc_generated_files/can1.c"
  4401 ;; Parameters:    Size  Location     Type
  4402 ;;  index           1    wreg     unsigned char 
  4403 ;;  channel         1   22[COMRAM] enum E22386
  4404 ;;  rxCanMsg        2   23[COMRAM] PTR struct .
  4405 ;;		 -> C1__ReceiveFIFO1NotEmptyHandler@Currently_Processing(7), 
  4406 ;; Auto vars:     Size  Location     Type
  4407 ;;  index           1   31[COMRAM] unsigned char 
  4408 ;;  rxFifoObj       2   28[COMRAM] PTR unsigned char 
  4409 ;;		 -> RAM(14335), 
  4410 ;;  rxMsgStatus     1   30[COMRAM] enum E22462
  4411 ;;  status          1   27[COMRAM] _Bool 
  4412 ;; Return value:  Size  Location     Type
  4413 ;;                  1    wreg      _Bool 
  4414 ;; Registers used:
  4415 ;;		wreg, fsr2l, fsr2h, status,2, status,0, tblptrl, tblptrh, tblptru, prodl, prodh, cstack
  4416 ;; Tracked objects:
  4417 ;;		On entry : 0/0
  4418 ;;		On exit  : 0/0
  4419 ;;		Unchanged: 0/0
  4420 ;; Data sizes:     COMRAM   BANK5   BANK6   BANK7   BANK8   BANK9  BANK10  BANK11  BANK12  BANK13  BANK14  BANK15  BANK1
      +6  BANK17  BANK18  BANK19  BANK20  BANK21  BANK22  BANK23  BANK24  BANK25  BANK26  BANK27  BANK28  BANK29  BANK30  BANK3
      +1  BANK32  BANK33  BANK34  BANK35  BANK36  BANK37  BANK38  BANK39  BANK40  BANK41  BANK42  BANK43  BANK44  BANK45  BANK4
      +6  BANK47  BANK48  BANK49  BANK50  BANK51  BANK52  BANK53  BANK54  BANK55
  4421 ;;      Params:         3       0       0       0       0       0       0       0       0       0       0       0       
      +0       0       0       0       0       0       0       0       0       0       0       0       0       0       0       
      +0       0       0       0       0       0       0       0       0       0       0       0       0       0       0       
      +0       0       0       0       0       0       0       0       0       0
  4422 ;;      Locals:         5       0       0       0       0       0       0       0       0       0       0       0       
      +0       0       0       0       0       0       0       0       0       0       0       0       0       0       0       
      +0       0       0       0       0       0       0       0       0       0       0       0       0       0       0       
      +0       0       0       0       0       0       0       0       0       0
  4423 ;;      Temps:          2       0       0       0       0       0       0       0       0       0       0       0       
      +0       0       0       0       0       0       0       0       0       0       0       0       0       0       0       
      +0       0       0       0       0       0       0       0       0       0       0       0       0       0       0       
      +0       0       0       0       0       0       0       0       0       0
  4424 ;;      Totals:        10       0       0       0       0       0       0       0       0       0       0       0       
      +0       0       0       0       0       0       0       0       0       0       0       0       0       0       0       
      +0       0       0       0       0       0       0       0       0       0       0       0       0       0       0       
      +0       0       0       0       0       0       0       0       0       0
  4425 ;;Total ram usage:       10 bytes
  4426 ;; Hardware stack levels used: 1
  4427 ;; Hardware stack levels required when called: 2
  4428 ;; This function calls:
  4429 ;;		_GetRxFifoDepth
  4430 ;;		_GetRxFifoStatus
  4431 ;;		_ReadMessageFromFifo
  4432 ;; This function is called by:
  4433 ;;		_CAN1_ReceiveFrom
  4434 ;;		_CAN1_Receive
  4435 ;; This function uses a non-reentrant model
  4436 ;;
  4437                           
  4438                           	psect	text39
  4439  004024                     __ptext39:
  4440                           	callstack 0
  4441  004024                     _Receive:
  4442                           	callstack 117
  4443                           
  4444                           ;incstack = 0
  4445                           ;Receive@index stored from wreg
  4446  004024  6E20               	movwf	Receive@index^(0+1280),c
  4447  004026                     
  4448                           ;mcc_generated_files/can1.c: 364: static _Bool Receive(uint8_t index, CAN1_RX_FIFO_CHANN
      +                          ELS channel, CAN_MSG_OBJ *rxCanMsg);mcc_generated_files/can1.c: 365: {;mcc_generated_fil
      +                          es/can1.c: 366:     _Bool status = 0;
  4449  004026  0E00               	movlw	0
  4450  004028  6E1C               	movwf	Receive@status^(0+1280),c
  4451  00402A                     
  4452                           ;mcc_generated_files/can1.c: 367:     CAN_RX_FIFO_STATUS rxMsgStatus = GetRxFifoStatus(c
      +                          hannel);
  4453  00402A  5017               	movf	Receive@channel^(0+1280),w,c
  4454  00402C  ECC7  F024         	call	_GetRxFifoStatus
  4455  004030  6E1F               	movwf	Receive@rxMsgStatus^(0+1280),c
  4456  004032                     
  4457                           ;mcc_generated_files/can1.c: 369:     if (CAN_RX_MSG_AVAILABLE == (rxMsgStatus & CAN_RX_
      +                          MSG_AVAILABLE))
  4458  004032  A01F               	btfss	Receive@rxMsgStatus^(0+1280),0,c
  4459  004034  EF1E  F020         	goto	i2u116_41
  4460  004038  EF20  F020         	goto	i2u116_40
  4461  00403C                     i2u116_41:
  4462  00403C  EF86  F020         	goto	i2l2159
  4463  004040                     i2u116_40:
  4464  004040                     
  4465                           ;mcc_generated_files/can1.c: 370:     {;mcc_generated_files/can1.c: 371:         uint8_t
      +                           *rxFifoObj = (uint8_t *) FIFO[channel].UA;
  4466  004040  5017               	movf	Receive@channel^(0+1280),w,c
  4467  004042  0D0C               	mullw	12
  4468  004044  0E58               	movlw	88
  4469  004046  24F3               	addwf	243,w,c
  4470  004048  6ED9               	movwf	fsr2l,c
  4471  00404A  0E01               	movlw	1
  4472  00404C  20F4               	addwfc	prodh,w,c
  4473  00404E  6EDA               	movwf	fsr2h,c
  4474  004050  0061 F378  F51D    	movff	postinc2,Receive@rxFifoObj
  4475  004056  0061 F374  F51E    	movff	postdec2,Receive@rxFifoObj+1
  4476  00405C                     
  4477                           ;mcc_generated_files/can1.c: 373:         if (rxFifoObj != ((void*)0))
  4478  00405C  501D               	movf	Receive@rxFifoObj^(0+1280),w,c
  4479  00405E  101E               	iorwf	(Receive@rxFifoObj+1)^(0+1280),w,c
  4480  004060  B4D8               	btfsc	status,2,c
  4481  004062  EF35  F020         	goto	i2u117_41
  4482  004066  EF37  F020         	goto	i2u117_40
  4483  00406A                     i2u117_41:
  4484  00406A  EF86  F020         	goto	i2l2159
  4485  00406E                     i2u117_40:
  4486  00406E                     
  4487                           ;mcc_generated_files/can1.c: 374:         {;mcc_generated_files/can1.c: 375:            
      +                           ReadMessageFromFifo(rxFifoObj, rxCanMsg);
  4488  00406E  C51D  F50C         	movff	Receive@rxFifoObj,ReadMessageFromFifo@rxFifoObj
  4489  004072  C51E  F50D         	movff	Receive@rxFifoObj+1,ReadMessageFromFifo@rxFifoObj+1
  4490  004076  C518  F50E         	movff	Receive@rxCanMsg,ReadMessageFromFifo@rxCanMsg
  4491  00407A  C519  F50F         	movff	Receive@rxCanMsg+1,ReadMessageFromFifo@rxCanMsg+1
  4492  00407E  EC2A  F01D         	call	_ReadMessageFromFifo	;wreg free
  4493  004082                     
  4494                           ;mcc_generated_files/can1.c: 376:             FIFO[channel].CONH |= 0x1;
  4495  004082  5017               	movf	Receive@channel^(0+1280),w,c
  4496  004084  0D0C               	mullw	12
  4497  004086  0E51               	movlw	81
  4498  004088  24F3               	addwf	243,w,c
  4499  00408A  6ED9               	movwf	fsr2l,c
  4500  00408C  0E01               	movlw	1
  4501  00408E  20F4               	addwfc	prodh,w,c
  4502  004090  6EDA               	movwf	fsr2h,c
  4503  004092  0E00               	movlw	0
  4504  004094  80DB               	bsf	plusw2,0,c
  4505  004096                     
  4506                           ;mcc_generated_files/can1.c: 378:             rxFifos[index].fifoHead += 1;
  4507  004096  5020               	movf	Receive@index^(0+1280),w,c
  4508  004098  0D02               	mullw	2
  4509  00409A  0E79               	movlw	low (_rxFifos+1)
  4510  00409C  24F3               	addwf	243,w,c
  4511  00409E  6ED9               	movwf	fsr2l,c
  4512  0040A0  0E05               	movlw	high (_rxFifos+1)
  4513  0040A2  20F4               	addwfc	prodh,w,c
  4514  0040A4  6EDA               	movwf	fsr2h,c
  4515  0040A6  2ADF               	incf	indf2,f,c
  4516  0040A8                     
  4517                           ;mcc_generated_files/can1.c: 379:             if (rxFifos[index].fifoHead >= GetRxFifoDe
      +                          pth(channel))
  4518  0040A8  5017               	movf	Receive@channel^(0+1280),w,c
  4519  0040AA  EC9F  F024         	call	_GetRxFifoDepth
  4520  0040AE  6E1A               	movwf	??_Receive^(0+1280),c
  4521  0040B0  5020               	movf	Receive@index^(0+1280),w,c
  4522  0040B2  0D02               	mullw	2
  4523  0040B4  0E79               	movlw	low (_rxFifos+1)
  4524  0040B6  24F3               	addwf	243,w,c
  4525  0040B8  6ED9               	movwf	fsr2l,c
  4526  0040BA  0E05               	movlw	high (_rxFifos+1)
  4527  0040BC  20F4               	addwfc	prodh,w,c
  4528  0040BE  6EDA               	movwf	fsr2h,c
  4529  0040C0  501A               	movf	??_Receive^(0+1280),w,c
  4530  0040C2  5CDE               	subwf	postinc2,w,c
  4531  0040C4  A0D8               	btfss	status,0,c
  4532  0040C6  EF67  F020         	goto	i2u118_41
  4533  0040CA  EF69  F020         	goto	i2u118_40
  4534  0040CE                     i2u118_41:
  4535  0040CE  EF73  F020         	goto	i2l2153
  4536  0040D2                     i2u118_40:
  4537  0040D2                     
  4538                           ;mcc_generated_files/can1.c: 380:             {;mcc_generated_files/can1.c: 381:        
      +                                   rxFifos[index].fifoHead = 0;
  4539  0040D2  5020               	movf	Receive@index^(0+1280),w,c
  4540  0040D4  0D02               	mullw	2
  4541  0040D6  0E79               	movlw	low (_rxFifos+1)
  4542  0040D8  24F3               	addwf	243,w,c
  4543  0040DA  6ED9               	movwf	fsr2l,c
  4544  0040DC  0E05               	movlw	high (_rxFifos+1)
  4545  0040DE  20F4               	addwfc	prodh,w,c
  4546  0040E0  6EDA               	movwf	fsr2h,c
  4547  0040E2  0E00               	movlw	0
  4548  0040E4  6EDF               	movwf	indf2,c
  4549  0040E6                     i2l2153:
  4550                           
  4551                           ;mcc_generated_files/can1.c: 384:             if (CAN_RX_MSG_OVERFLOW == (rxMsgStatus & 
      +                          CAN_RX_MSG_OVERFLOW))
  4552  0040E6  A61F               	btfss	Receive@rxMsgStatus^(0+1280),3,c
  4553  0040E8  EF78  F020         	goto	i2u119_41
  4554  0040EC  EF7A  F020         	goto	i2u119_40
  4555  0040F0                     i2u119_41:
  4556  0040F0  EF84  F020         	goto	i2l2157
  4557  0040F4                     i2u119_40:
  4558  0040F4                     
  4559                           ;mcc_generated_files/can1.c: 385:             {;mcc_generated_files/can1.c: 386:        
      +                                   FIFO[channel].STAL &= ~0x8;
  4560  0040F4  5017               	movf	Receive@channel^(0+1280),w,c
  4561  0040F6  0D0C               	mullw	12
  4562  0040F8  0E54               	movlw	84
  4563  0040FA  24F3               	addwf	243,w,c
  4564  0040FC  6ED9               	movwf	fsr2l,c
  4565  0040FE  0E01               	movlw	1
  4566  004100  20F4               	addwfc	prodh,w,c
  4567  004102  6EDA               	movwf	fsr2h,c
  4568  004104  0EF7               	movlw	247
  4569  004106  16DF               	andwf	indf2,f,c
  4570  004108                     i2l2157:
  4571                           
  4572                           ;mcc_generated_files/can1.c: 389:             status = 1;
  4573  004108  0E01               	movlw	1
  4574  00410A  6E1C               	movwf	Receive@status^(0+1280),c
  4575  00410C                     i2l2159:
  4576                           
  4577                           ;mcc_generated_files/can1.c: 393:     return status;
  4578  00410C  501C               	movf	Receive@status^(0+1280),w,c
  4579  00410E  0012               	return		;funcret
  4580  004110                     __end_of_Receive:
  4581                           	callstack 0
  4582                           
  4583 ;; *************** function _ReadMessageFromFifo *****************
  4584 ;; Defined at:
  4585 ;;		line 330 in file "mcc_generated_files/can1.c"
  4586 ;; Parameters:    Size  Location     Type
  4587 ;;  rxFifoObj       2   11[COMRAM] PTR unsigned char 
  4588 ;;		 -> RAM(14335), 
  4589 ;;  rxCanMsg        2   13[COMRAM] PTR struct .
  4590 ;;		 -> C1__ReceiveFIFO1NotEmptyHandler@Currently_Processing(7), 
  4591 ;; Auto vars:     Size  Location     Type
  4592 ;;  msgId           4   17[COMRAM] unsigned long 
  4593 ;;  status          1   21[COMRAM] unsigned char 
  4594 ;;  payloadOffse    1    0        const unsigned char 
  4595 ;; Return value:  Size  Location     Type
  4596 ;;                  1    wreg      void 
  4597 ;; Registers used:
  4598 ;;		wreg, fsr2l, fsr2h, status,2, status,0, tblptrl, tblptrh, tblptru, cstack
  4599 ;; Tracked objects:
  4600 ;;		On entry : 0/0
  4601 ;;		On exit  : 0/0
  4602 ;;		Unchanged: 0/0
  4603 ;; Data sizes:     COMRAM   BANK5   BANK6   BANK7   BANK8   BANK9  BANK10  BANK11  BANK12  BANK13  BANK14  BANK15  BANK1
      +6  BANK17  BANK18  BANK19  BANK20  BANK21  BANK22  BANK23  BANK24  BANK25  BANK26  BANK27  BANK28  BANK29  BANK30  BANK3
      +1  BANK32  BANK33  BANK34  BANK35  BANK36  BANK37  BANK38  BANK39  BANK40  BANK41  BANK42  BANK43  BANK44  BANK45  BANK4
      +6  BANK47  BANK48  BANK49  BANK50  BANK51  BANK52  BANK53  BANK54  BANK55
  4604 ;;      Params:         4       0       0       0       0       0       0       0       0       0       0       0       
      +0       0       0       0       0       0       0       0       0       0       0       0       0       0       0       
      +0       0       0       0       0       0       0       0       0       0       0       0       0       0       0       
      +0       0       0       0       0       0       0       0       0       0
  4605 ;;      Locals:         5       0       0       0       0       0       0       0       0       0       0       0       
      +0       0       0       0       0       0       0       0       0       0       0       0       0       0       0       
      +0       0       0       0       0       0       0       0       0       0       0       0       0       0       0       
      +0       0       0       0       0       0       0       0       0       0
  4606 ;;      Temps:          2       0       0       0       0       0       0       0       0       0       0       0       
      +0       0       0       0       0       0       0       0       0       0       0       0       0       0       0       
      +0       0       0       0       0       0       0       0       0       0       0       0       0       0       0       
      +0       0       0       0       0       0       0       0       0       0
  4607 ;;      Totals:        11       0       0       0       0       0       0       0       0       0       0       0       
      +0       0       0       0       0       0       0       0       0       0       0       0       0       0       0       
      +0       0       0       0       0       0       0       0       0       0       0       0       0       0       0       
      +0       0       0       0       0       0       0       0       0       0
  4608 ;;Total ram usage:       11 bytes
  4609 ;; Hardware stack levels used: 1
  4610 ;; Hardware stack levels required when called: 1
  4611 ;; This function calls:
  4612 ;;		_memcpy
  4613 ;; This function is called by:
  4614 ;;		_Receive
  4615 ;; This function uses a non-reentrant model
  4616 ;;
  4617                           
  4618                           	psect	text40
  4619  003A54                     __ptext40:
  4620                           	callstack 0
  4621  003A54                     _ReadMessageFromFifo:
  4622                           	callstack 117
  4623  003A54                     
  4624                           ;mcc_generated_files/can1.c: 330: static void ReadMessageFromFifo(uint8_t *rxFifoObj, CA
      +                          N_MSG_OBJ *rxCanMsg);mcc_generated_files/can1.c: 331: {;mcc_generated_files/can1.c: 332:
      +                               uint32_t msgId;;mcc_generated_files/can1.c: 333:     uint8_t status = rxFifoObj[4];
  4625  003A54  EE20 F004          	lfsr	2,4
  4626  003A58  500C               	movf	ReadMessageFromFifo@rxFifoObj^(0+1280),w,c
  4627  003A5A  26D9               	addwf	fsr2l,f,c
  4628  003A5C  500D               	movf	(ReadMessageFromFifo@rxFifoObj+1)^(0+1280),w,c
  4629  003A5E  22DA               	addwfc	fsr2h,f,c
  4630  003A60  50DF               	movf	indf2,w,c
  4631  003A62  6E16               	movwf	ReadMessageFromFifo@status^(0+1280),c
  4632  003A64                     
  4633                           ;mcc_generated_files/can1.c: 340:     rxCanMsg->field.dlc = status;
  4634  003A64  C516  F510         	movff	ReadMessageFromFifo@status,??_ReadMessageFromFifo
  4635  003A68  EE20 F004          	lfsr	2,4
  4636  003A6C  500E               	movf	ReadMessageFromFifo@rxCanMsg^(0+1280),w,c
  4637  003A6E  26D9               	addwf	fsr2l,f,c
  4638  003A70  500F               	movf	(ReadMessageFromFifo@rxCanMsg+1)^(0+1280),w,c
  4639  003A72  22DA               	addwfc	fsr2h,f,c
  4640  003A74  4610               	rlncf	??_ReadMessageFromFifo^(0+1280),f,c
  4641  003A76  4610               	rlncf	??_ReadMessageFromFifo^(0+1280),f,c
  4642  003A78  50DF               	movf	479,w,c
  4643  003A7A  1810               	xorwf	??_ReadMessageFromFifo^(0+1280),w,c
  4644  003A7C  0BC3               	andlw	-61
  4645  003A7E  1810               	xorwf	??_ReadMessageFromFifo^(0+1280),w,c
  4646  003A80  6EDF               	movwf	479,c
  4647  003A82                     
  4648                           ;mcc_generated_files/can1.c: 341:     rxCanMsg->field.idType = (status & (1UL << (4U))) 
      +                          ? CAN_FRAME_EXT : CAN_FRAME_STD;
  4649  003A82  B816               	btfsc	ReadMessageFromFifo@status^(0+1280),4,c
  4650  003A84  EF46  F01D         	goto	i2u105_41
  4651  003A88  EF4A  F01D         	goto	i2u105_40
  4652  003A8C                     i2u105_41:
  4653  003A8C  6A10               	clrf	??_ReadMessageFromFifo^(0+1280),c
  4654  003A8E  2A10               	incf	??_ReadMessageFromFifo^(0+1280),f,c
  4655  003A90  EF4B  F01D         	goto	i2u106_48
  4656  003A94                     i2u105_40:
  4657  003A94  6A10               	clrf	??_ReadMessageFromFifo^(0+1280),c
  4658  003A96                     i2u106_48:
  4659  003A96  EE20 F004          	lfsr	2,4
  4660  003A9A  500E               	movf	ReadMessageFromFifo@rxCanMsg^(0+1280),w,c
  4661  003A9C  26D9               	addwf	fsr2l,f,c
  4662  003A9E  500F               	movf	(ReadMessageFromFifo@rxCanMsg+1)^(0+1280),w,c
  4663  003AA0  22DA               	addwfc	fsr2h,f,c
  4664  003AA2  50DF               	movf	479,w,c
  4665  003AA4  1810               	xorwf	??_ReadMessageFromFifo^(0+1280),w,c
  4666  003AA6  0BFE               	andlw	-2
  4667  003AA8  1810               	xorwf	??_ReadMessageFromFifo^(0+1280),w,c
  4668  003AAA  6EDF               	movwf	479,c
  4669  003AAC                     
  4670                           ;mcc_generated_files/can1.c: 342:     rxCanMsg->field.frameType = (status & (1UL << (5U)
      +                          )) ? CAN_FRAME_RTR : CAN_FRAME_DATA;
  4671  003AAC  BA16               	btfsc	ReadMessageFromFifo@status^(0+1280),5,c
  4672  003AAE  EF5B  F01D         	goto	i2u107_41
  4673  003AB2  EF5F  F01D         	goto	i2u107_40
  4674  003AB6                     i2u107_41:
  4675  003AB6  6A10               	clrf	??_ReadMessageFromFifo^(0+1280),c
  4676  003AB8  2A10               	incf	??_ReadMessageFromFifo^(0+1280),f,c
  4677  003ABA  EF60  F01D         	goto	i2u108_48
  4678  003ABE                     i2u107_40:
  4679  003ABE  6A10               	clrf	??_ReadMessageFromFifo^(0+1280),c
  4680  003AC0                     i2u108_48:
  4681  003AC0  EE20 F004          	lfsr	2,4
  4682  003AC4  500E               	movf	ReadMessageFromFifo@rxCanMsg^(0+1280),w,c
  4683  003AC6  26D9               	addwf	fsr2l,f,c
  4684  003AC8  500F               	movf	(ReadMessageFromFifo@rxCanMsg+1)^(0+1280),w,c
  4685  003ACA  22DA               	addwfc	fsr2h,f,c
  4686  003ACC  4610               	rlncf	??_ReadMessageFromFifo^(0+1280),f,c
  4687  003ACE  50DF               	movf	479,w,c
  4688  003AD0  1810               	xorwf	??_ReadMessageFromFifo^(0+1280),w,c
  4689  003AD2  0BFD               	andlw	-3
  4690  003AD4  1810               	xorwf	??_ReadMessageFromFifo^(0+1280),w,c
  4691  003AD6  6EDF               	movwf	479,c
  4692  003AD8                     
  4693                           ;mcc_generated_files/can1.c: 343:     rxCanMsg->field.brs = (status & (1UL << (6U))) ? C
      +                          AN_BRS_MODE : CAN_NON_BRS_MODE;
  4694  003AD8  BC16               	btfsc	ReadMessageFromFifo@status^(0+1280),6,c
  4695  003ADA  EF71  F01D         	goto	i2u109_41
  4696  003ADE  EF75  F01D         	goto	i2u109_40
  4697  003AE2                     i2u109_41:
  4698  003AE2  6A10               	clrf	??_ReadMessageFromFifo^(0+1280),c
  4699  003AE4  2A10               	incf	??_ReadMessageFromFifo^(0+1280),f,c
  4700  003AE6  EF76  F01D         	goto	i2u110_48
  4701  003AEA                     i2u109_40:
  4702  003AEA  6A10               	clrf	??_ReadMessageFromFifo^(0+1280),c
  4703  003AEC                     i2u110_48:
  4704  003AEC  EE20 F004          	lfsr	2,4
  4705  003AF0  500E               	movf	ReadMessageFromFifo@rxCanMsg^(0+1280),w,c
  4706  003AF2  26D9               	addwf	fsr2l,f,c
  4707  003AF4  500F               	movf	(ReadMessageFromFifo@rxCanMsg+1)^(0+1280),w,c
  4708  003AF6  22DA               	addwfc	fsr2h,f,c
  4709  003AF8  3210               	rrcf	??_ReadMessageFromFifo^(0+1280),f,c
  4710  003AFA  3210               	rrcf	??_ReadMessageFromFifo^(0+1280),f,c
  4711  003AFC  50DF               	movf	479,w,c
  4712  003AFE  1810               	xorwf	??_ReadMessageFromFifo^(0+1280),w,c
  4713  003B00  0B7F               	andlw	-129
  4714  003B02  1810               	xorwf	??_ReadMessageFromFifo^(0+1280),w,c
  4715  003B04  6EDF               	movwf	479,c
  4716  003B06                     
  4717                           ;mcc_generated_files/can1.c: 344:     rxCanMsg->field.formatType = (status & (1UL << (7U
      +                          ))) ? CAN_FRAME_EXT : CAN_FRAME_STD;
  4718  003B06  BE16               	btfsc	ReadMessageFromFifo@status^(0+1280),7,c
  4719  003B08  EF88  F01D         	goto	i2u111_41
  4720  003B0C  EF8C  F01D         	goto	i2u111_40
  4721  003B10                     i2u111_41:
  4722  003B10  6A10               	clrf	??_ReadMessageFromFifo^(0+1280),c
  4723  003B12  2A10               	incf	??_ReadMessageFromFifo^(0+1280),f,c
  4724  003B14  EF8D  F01D         	goto	i2u112_48
  4725  003B18                     i2u111_40:
  4726  003B18  6A10               	clrf	??_ReadMessageFromFifo^(0+1280),c
  4727  003B1A                     i2u112_48:
  4728  003B1A  EE20 F004          	lfsr	2,4
  4729  003B1E  500E               	movf	ReadMessageFromFifo@rxCanMsg^(0+1280),w,c
  4730  003B20  26D9               	addwf	fsr2l,f,c
  4731  003B22  500F               	movf	(ReadMessageFromFifo@rxCanMsg+1)^(0+1280),w,c
  4732  003B24  22DA               	addwfc	fsr2h,f,c
  4733  003B26  3A10               	swapf	??_ReadMessageFromFifo^(0+1280),f,c
  4734  003B28  4610               	rlncf	??_ReadMessageFromFifo^(0+1280),f,c
  4735  003B2A  4610               	rlncf	??_ReadMessageFromFifo^(0+1280),f,c
  4736  003B2C  50DF               	movf	479,w,c
  4737  003B2E  1810               	xorwf	??_ReadMessageFromFifo^(0+1280),w,c
  4738  003B30  0BBF               	andlw	-65
  4739  003B32  1810               	xorwf	??_ReadMessageFromFifo^(0+1280),w,c
  4740  003B34  6EDF               	movwf	479,c
  4741  003B36                     
  4742                           ;mcc_generated_files/can1.c: 346:     msgId = rxFifoObj[1] & (0x07U);
  4743  003B36  EE20 F001          	lfsr	2,1
  4744  003B3A  500C               	movf	ReadMessageFromFifo@rxFifoObj^(0+1280),w,c
  4745  003B3C  26D9               	addwf	fsr2l,f,c
  4746  003B3E  500D               	movf	(ReadMessageFromFifo@rxFifoObj+1)^(0+1280),w,c
  4747  003B40  22DA               	addwfc	fsr2h,f,c
  4748  003B42  50DF               	movf	indf2,w,c
  4749  003B44  6E10               	movwf	??_ReadMessageFromFifo^(0+1280),c
  4750  003B46  0E07               	movlw	7
  4751  003B48  1610               	andwf	??_ReadMessageFromFifo^(0+1280),f,c
  4752  003B4A  5010               	movf	??_ReadMessageFromFifo^(0+1280),w,c
  4753  003B4C  6E12               	movwf	ReadMessageFromFifo@msgId^(0+1280),c
  4754  003B4E  6A13               	clrf	(ReadMessageFromFifo@msgId+1)^(0+1280),c
  4755  003B50  6A14               	clrf	(ReadMessageFromFifo@msgId+2)^(0+1280),c
  4756  003B52  6A15               	clrf	(ReadMessageFromFifo@msgId+3)^(0+1280),c
  4757  003B54                     
  4758                           ;mcc_generated_files/can1.c: 347:     msgId <<= (8U);
  4759  003B54  C514  F515         	movff	ReadMessageFromFifo@msgId+2,ReadMessageFromFifo@msgId+3
  4760  003B58  C513  F514         	movff	ReadMessageFromFifo@msgId+1,ReadMessageFromFifo@msgId+2
  4761  003B5C  C512  F513         	movff	ReadMessageFromFifo@msgId,ReadMessageFromFifo@msgId+1
  4762  003B60  6A12               	clrf	ReadMessageFromFifo@msgId^(0+1280),c
  4763  003B62                     
  4764                           ;mcc_generated_files/can1.c: 348:     msgId |= rxFifoObj[0];
  4765  003B62  0061  F430  F4D9   	movff	ReadMessageFromFifo@rxFifoObj,fsr2l
  4766  003B68  0061  F434  F4DA   	movff	ReadMessageFromFifo@rxFifoObj+1,fsr2h
  4767  003B6E  50DF               	movf	indf2,w,c
  4768  003B70  6E10               	movwf	??_ReadMessageFromFifo^(0+1280),c
  4769  003B72  5010               	movf	??_ReadMessageFromFifo^(0+1280),w,c
  4770  003B74  1212               	iorwf	ReadMessageFromFifo@msgId^(0+1280),f,c
  4771  003B76                     
  4772                           ;mcc_generated_files/can1.c: 349:     if (CAN_FRAME_EXT == rxCanMsg->field.idType)
  4773  003B76  EE20 F004          	lfsr	2,4
  4774  003B7A  500E               	movf	ReadMessageFromFifo@rxCanMsg^(0+1280),w,c
  4775  003B7C  26D9               	addwf	fsr2l,f,c
  4776  003B7E  500F               	movf	(ReadMessageFromFifo@rxCanMsg+1)^(0+1280),w,c
  4777  003B80  22DA               	addwfc	fsr2h,f,c
  4778  003B82  A0DF               	btfss	indf2,0,c
  4779  003B84  EFC6  F01D         	goto	i2u113_41
  4780  003B88  EFC8  F01D         	goto	i2u113_40
  4781  003B8C                     i2u113_41:
  4782  003B8C  EF09  F01E         	goto	i2l2107
  4783  003B90                     i2u113_40:
  4784  003B90                     
  4785                           ;mcc_generated_files/can1.c: 350:     {;mcc_generated_files/can1.c: 351:         msgId <
      +                          <= (5U);
  4786  003B90  0E05               	movlw	5
  4787  003B92                     i2u114_45:
  4788  003B92  90D8               	bcf	status,0,c
  4789  003B94  3612               	rlcf	ReadMessageFromFifo@msgId^(0+1280),f,c
  4790  003B96  3613               	rlcf	(ReadMessageFromFifo@msgId+1)^(0+1280),f,c
  4791  003B98  3614               	rlcf	(ReadMessageFromFifo@msgId+2)^(0+1280),f,c
  4792  003B9A  3615               	rlcf	(ReadMessageFromFifo@msgId+3)^(0+1280),f,c
  4793  003B9C  2EE8               	decfsz	wreg,f,c
  4794  003B9E  EFC9  F01D         	goto	i2u114_45
  4795  003BA2                     
  4796                           ;mcc_generated_files/can1.c: 352:         msgId |= (rxFifoObj[3] & (0x1FU));
  4797  003BA2  EE20 F003          	lfsr	2,3
  4798  003BA6  500C               	movf	ReadMessageFromFifo@rxFifoObj^(0+1280),w,c
  4799  003BA8  26D9               	addwf	fsr2l,f,c
  4800  003BAA  500D               	movf	(ReadMessageFromFifo@rxFifoObj+1)^(0+1280),w,c
  4801  003BAC  22DA               	addwfc	fsr2h,f,c
  4802  003BAE  50DF               	movf	indf2,w,c
  4803  003BB0  6E10               	movwf	??_ReadMessageFromFifo^(0+1280),c
  4804  003BB2  0E1F               	movlw	31
  4805  003BB4  1610               	andwf	??_ReadMessageFromFifo^(0+1280),f,c
  4806  003BB6  5010               	movf	??_ReadMessageFromFifo^(0+1280),w,c
  4807  003BB8  1212               	iorwf	ReadMessageFromFifo@msgId^(0+1280),f,c
  4808  003BBA                     
  4809                           ;mcc_generated_files/can1.c: 353:         msgId <<= (8U);
  4810  003BBA  C514  F515         	movff	ReadMessageFromFifo@msgId+2,ReadMessageFromFifo@msgId+3
  4811  003BBE  C513  F514         	movff	ReadMessageFromFifo@msgId+1,ReadMessageFromFifo@msgId+2
  4812  003BC2  C512  F513         	movff	ReadMessageFromFifo@msgId,ReadMessageFromFifo@msgId+1
  4813  003BC6  6A12               	clrf	ReadMessageFromFifo@msgId^(0+1280),c
  4814  003BC8                     
  4815                           ;mcc_generated_files/can1.c: 354:         msgId |= rxFifoObj[2];
  4816  003BC8  EE20 F002          	lfsr	2,2
  4817  003BCC  500C               	movf	ReadMessageFromFifo@rxFifoObj^(0+1280),w,c
  4818  003BCE  26D9               	addwf	fsr2l,f,c
  4819  003BD0  500D               	movf	(ReadMessageFromFifo@rxFifoObj+1)^(0+1280),w,c
  4820  003BD2  22DA               	addwfc	fsr2h,f,c
  4821  003BD4  50DF               	movf	indf2,w,c
  4822  003BD6  6E10               	movwf	??_ReadMessageFromFifo^(0+1280),c
  4823  003BD8  5010               	movf	??_ReadMessageFromFifo^(0+1280),w,c
  4824  003BDA  1212               	iorwf	ReadMessageFromFifo@msgId^(0+1280),f,c
  4825  003BDC                     
  4826                           ;mcc_generated_files/can1.c: 355:         msgId <<= (5U);
  4827  003BDC  0E05               	movlw	5
  4828  003BDE                     i2u115_45:
  4829  003BDE  90D8               	bcf	status,0,c
  4830  003BE0  3612               	rlcf	ReadMessageFromFifo@msgId^(0+1280),f,c
  4831  003BE2  3613               	rlcf	(ReadMessageFromFifo@msgId+1)^(0+1280),f,c
  4832  003BE4  3614               	rlcf	(ReadMessageFromFifo@msgId+2)^(0+1280),f,c
  4833  003BE6  3615               	rlcf	(ReadMessageFromFifo@msgId+3)^(0+1280),f,c
  4834  003BE8  2EE8               	decfsz	wreg,f,c
  4835  003BEA  EFEF  F01D         	goto	i2u115_45
  4836  003BEE                     
  4837                           ;mcc_generated_files/can1.c: 356:         msgId |= (rxFifoObj[1] & (0xF8U)) >> (3U);
  4838  003BEE  EE20 F001          	lfsr	2,1
  4839  003BF2  500C               	movf	ReadMessageFromFifo@rxFifoObj^(0+1280),w,c
  4840  003BF4  26D9               	addwf	fsr2l,f,c
  4841  003BF6  500D               	movf	(ReadMessageFromFifo@rxFifoObj+1)^(0+1280),w,c
  4842  003BF8  22DA               	addwfc	fsr2h,f,c
  4843  003BFA  50DF               	movf	indf2,w,c
  4844  003BFC  6E10               	movwf	??_ReadMessageFromFifo^(0+1280),c
  4845  003BFE  90D8               	bcf	status,0,c
  4846  003C00  3210               	rrcf	??_ReadMessageFromFifo^(0+1280),f,c
  4847  003C02  90D8               	bcf	status,0,c
  4848  003C04  3210               	rrcf	??_ReadMessageFromFifo^(0+1280),f,c
  4849  003C06  90D8               	bcf	status,0,c
  4850  003C08  3210               	rrcf	??_ReadMessageFromFifo^(0+1280),f,c
  4851  003C0A  0E1F               	movlw	31
  4852  003C0C  1610               	andwf	??_ReadMessageFromFifo^(0+1280),f,c
  4853  003C0E  5010               	movf	??_ReadMessageFromFifo^(0+1280),w,c
  4854  003C10  1212               	iorwf	ReadMessageFromFifo@msgId^(0+1280),f,c
  4855  003C12                     i2l2107:
  4856                           
  4857                           ;mcc_generated_files/can1.c: 358:     rxCanMsg->msgId = msgId;
  4858  003C12  0061  F438  F4D9   	movff	ReadMessageFromFifo@rxCanMsg,fsr2l
  4859  003C18  0061  F43C  F4DA   	movff	ReadMessageFromFifo@rxCanMsg+1,fsr2h
  4860  003C1E  0061  F448  F4DE   	movff	ReadMessageFromFifo@msgId,postinc2
  4861  003C24  0061  F44C  F4DE   	movff	ReadMessageFromFifo@msgId+1,postinc2
  4862  003C2A  0061  F450  F4DE   	movff	ReadMessageFromFifo@msgId+2,postinc2
  4863  003C30  0061  F454  F4DE   	movff	ReadMessageFromFifo@msgId+3,postinc2
  4864  003C36                     
  4865                           ;mcc_generated_files/can1.c: 360:     memcpy(rxMsgData, rxFifoObj + payloadOffsetBytes, 
      +                          (DLC_BYTES[(rxCanMsg->field.dlc)]));
  4866  003C36  0E48               	movlw	low _rxMsgData
  4867  003C38  6E01               	movwf	memcpy@d1^(0+1280),c
  4868  003C3A  0E05               	movlw	high _rxMsgData
  4869  003C3C  6E02               	movwf	(memcpy@d1+1)^(0+1280),c
  4870  003C3E  0E08               	movlw	8
  4871  003C40  240C               	addwf	ReadMessageFromFifo@rxFifoObj^(0+1280),w,c
  4872  003C42  6E03               	movwf	memcpy@s1^(0+1280),c
  4873  003C44  0E00               	movlw	0
  4874  003C46  200D               	addwfc	(ReadMessageFromFifo@rxFifoObj+1)^(0+1280),w,c
  4875  003C48  6E04               	movwf	(memcpy@s1+1)^(0+1280),c
  4876  003C4A  EE20 F004          	lfsr	2,4
  4877  003C4E  500E               	movf	ReadMessageFromFifo@rxCanMsg^(0+1280),w,c
  4878  003C50  26D9               	addwf	fsr2l,f,c
  4879  003C52  500F               	movf	(ReadMessageFromFifo@rxCanMsg+1)^(0+1280),w,c
  4880  003C54  22DA               	addwfc	fsr2h,f,c
  4881  003C56  30DF               	rrcf	479,w,c
  4882  003C58  32E8               	rrcf	wreg,f,c
  4883  003C5A  0B0F               	andlw	15
  4884  003C5C  6E10               	movwf	??_ReadMessageFromFifo^(0+1280),c
  4885  003C5E  6A11               	clrf	(??_ReadMessageFromFifo+1)^(0+1280),c
  4886  003C60  0E01               	movlw	low _DLC_BYTES
  4887  003C62  2410               	addwf	??_ReadMessageFromFifo^(0+1280),w,c
  4888  003C64  6EF6               	movwf	tblptrl,c
  4889  003C66  0E38               	movlw	high _DLC_BYTES
  4890  003C68  2011               	addwfc	(??_ReadMessageFromFifo+1)^(0+1280),w,c
  4891  003C6A  6EF7               	movwf	tblptrh,c
  4892  003C6C                     	if	1	;There are 3 active tblptr bytes
  4893  003C6C  6AF8               	clrf	tblptru,c
  4894  003C6E  0E00               	movlw	low (__mediumconst shr (0+16))
  4895  003C70  22F8               	addwfc	tblptru,f,c
  4896  003C72                     	endif
  4897  003C72  0008               	tblrd		*
  4898  003C74  50F5               	movf	tablat,w,c
  4899  003C76  6E05               	movwf	memcpy@n^(0+1280),c
  4900  003C78  6A06               	clrf	(memcpy@n+1)^(0+1280),c
  4901  003C7A  EC4D  F023         	call	_memcpy	;wreg free
  4902  003C7E                     
  4903                           ;mcc_generated_files/can1.c: 361:     rxCanMsg->data = rxMsgData;
  4904  003C7E  EE20 F005          	lfsr	2,5
  4905  003C82  500E               	movf	ReadMessageFromFifo@rxCanMsg^(0+1280),w,c
  4906  003C84  26D9               	addwf	fsr2l,f,c
  4907  003C86  500F               	movf	(ReadMessageFromFifo@rxCanMsg+1)^(0+1280),w,c
  4908  003C88  22DA               	addwfc	fsr2h,f,c
  4909  003C8A  0E48               	movlw	low _rxMsgData
  4910  003C8C  6EDE               	movwf	postinc2,c
  4911  003C8E  0E05               	movlw	high _rxMsgData
  4912  003C90  6EDD               	movwf	postdec2,c
  4913  003C92  0012               	return		;funcret
  4914  003C94                     __end_of_ReadMessageFromFifo:
  4915                           	callstack 0
  4916                           
  4917 ;; *************** function _memcpy *****************
  4918 ;; Defined at:
  4919 ;;		line 4 in file "C:\Program Files\Microchip\xc8\v2.32\pic\sources\c99\common\memcpy.c"
  4920 ;; Parameters:    Size  Location     Type
  4921 ;;  d1              2    0[COMRAM] PTR void 
  4922 ;;		 -> RAM(14335), rxMsgData(8), 
  4923 ;;  s1              2    2[COMRAM] PTR const void 
  4924 ;;		 -> C1__ReceiveFIFO1NotEmptyHandler@data_Out(8), TU16A__C1_TransmitInterruptHandler@Transmit_Data(8), RAM(14335), rx
      +MsgData(8), 
  4925 ;;  n               2    4[COMRAM] unsigned int 
  4926 ;; Auto vars:     Size  Location     Type
  4927 ;;  s               2    8[COMRAM] PTR const unsigned char 
  4928 ;;		 -> C1__ReceiveFIFO1NotEmptyHandler@data_Out(8), TU16A__C1_TransmitInterruptHandler@Transmit_Data(8), RAM(14335), rx
      +MsgData(8), 
  4929 ;;  d               2    6[COMRAM] PTR unsigned char 
  4930 ;;		 -> RAM(14335), rxMsgData(8), 
  4931 ;;  tmp             1   10[COMRAM] unsigned char 
  4932 ;; Return value:  Size  Location     Type
  4933 ;;                  2    0[COMRAM] PTR void 
  4934 ;; Registers used:
  4935 ;;		wreg, fsr2l, fsr2h, status,2, status,0
  4936 ;; Tracked objects:
  4937 ;;		On entry : 0/0
  4938 ;;		On exit  : 0/0
  4939 ;;		Unchanged: 0/0
  4940 ;; Data sizes:     COMRAM   BANK5   BANK6   BANK7   BANK8   BANK9  BANK10  BANK11  BANK12  BANK13  BANK14  BANK15  BANK1
      +6  BANK17  BANK18  BANK19  BANK20  BANK21  BANK22  BANK23  BANK24  BANK25  BANK26  BANK27  BANK28  BANK29  BANK30  BANK3
      +1  BANK32  BANK33  BANK34  BANK35  BANK36  BANK37  BANK38  BANK39  BANK40  BANK41  BANK42  BANK43  BANK44  BANK45  BANK4
      +6  BANK47  BANK48  BANK49  BANK50  BANK51  BANK52  BANK53  BANK54  BANK55
  4941 ;;      Params:         6       0       0       0       0       0       0       0       0       0       0       0       
      +0       0       0       0       0       0       0       0       0       0       0       0       0       0       0       
      +0       0       0       0       0       0       0       0       0       0       0       0       0       0       0       
      +0       0       0       0       0       0       0       0       0       0
  4942 ;;      Locals:         5       0       0       0       0       0       0       0       0       0       0       0       
      +0       0       0       0       0       0       0       0       0       0       0       0       0       0       0       
      +0       0       0       0       0       0       0       0       0       0       0       0       0       0       0       
      +0       0       0       0       0       0       0       0       0       0
  4943 ;;      Temps:          0       0       0       0       0       0       0       0       0       0       0       0       
      +0       0       0       0       0       0       0       0       0       0       0       0       0       0       0       
      +0       0       0       0       0       0       0       0       0       0       0       0       0       0       0       
      +0       0       0       0       0       0       0       0       0       0
  4944 ;;      Totals:        11       0       0       0       0       0       0       0       0       0       0       0       
      +0       0       0       0       0       0       0       0       0       0       0       0       0       0       0       
      +0       0       0       0       0       0       0       0       0       0       0       0       0       0       0       
      +0       0       0       0       0       0       0       0       0       0
  4945 ;;Total ram usage:       11 bytes
  4946 ;; Hardware stack levels used: 1
  4947 ;; This function calls:
  4948 ;;		Nothing
  4949 ;; This function is called by:
  4950 ;;		_ReadMessageFromFifo
  4951 ;;		_WriteMessageToFifo
  4952 ;; This function uses a non-reentrant model
  4953 ;;
  4954                           
  4955                           	psect	text41
  4956  00469A                     __ptext41:
  4957                           	callstack 0
  4958  00469A                     _memcpy:
  4959                           	callstack 118
  4960  00469A  C503  F509         	movff	memcpy@s1,memcpy@s
  4961  00469E  C504  F50A         	movff	memcpy@s1+1,memcpy@s+1
  4962  0046A2  C501  F507         	movff	memcpy@d1,memcpy@d
  4963  0046A6  C502  F508         	movff	memcpy@d1+1,memcpy@d+1
  4964  0046AA  EF6C  F023         	goto	i2l2063
  4965  0046AE                     i2l2055:
  4966  0046AE  0061  F424  F4D9   	movff	memcpy@s,fsr2l
  4967  0046B4  0061  F428  F4DA   	movff	memcpy@s+1,fsr2h
  4968  0046BA  50DF               	movf	indf2,w,c
  4969  0046BC  6E0B               	movwf	memcpy@tmp^(0+1280),c
  4970  0046BE  4A09               	infsnz	memcpy@s^(0+1280),f,c
  4971  0046C0  2A0A               	incf	(memcpy@s+1)^(0+1280),f,c
  4972  0046C2  0061  F41C  F4D9   	movff	memcpy@d,fsr2l
  4973  0046C8  0061  F420  F4DA   	movff	memcpy@d+1,fsr2h
  4974  0046CE  0061  F42C  F4DF   	movff	memcpy@tmp,indf2
  4975  0046D4  4A07               	infsnz	memcpy@d^(0+1280),f,c
  4976  0046D6  2A08               	incf	(memcpy@d+1)^(0+1280),f,c
  4977  0046D8                     i2l2063:
  4978  0046D8  0605               	decf	memcpy@n^(0+1280),f,c
  4979  0046DA  A0D8               	btfss	status,0,c
  4980  0046DC  0606               	decf	(memcpy@n+1)^(0+1280),f,c
  4981  0046DE  2805               	incf	memcpy@n^(0+1280),w,c
  4982  0046E0  E106               	bnz	i2u104_41
  4983  0046E2  2806               	incf	(memcpy@n+1)^(0+1280),w,c
  4984  0046E4  A4D8               	btfss	status,2,c
  4985  0046E6  EF77  F023         	goto	i2u104_41
  4986  0046EA  EF79  F023         	goto	i2u104_40
  4987  0046EE                     i2u104_41:
  4988  0046EE  EF57  F023         	goto	i2l2055
  4989  0046F2                     i2u104_40:
  4990  0046F2  0012               	return		;funcret
  4991  0046F4                     __end_of_memcpy:
  4992                           	callstack 0
  4993                           
  4994 ;; *************** function _GetRxFifoStatus *****************
  4995 ;; Defined at:
  4996 ;;		line 325 in file "mcc_generated_files/can1.c"
  4997 ;; Parameters:    Size  Location     Type
  4998 ;;  validChannel    1    wreg     unsigned char 
  4999 ;; Auto vars:     Size  Location     Type
  5000 ;;  validChannel    1    0[COMRAM] unsigned char 
  5001 ;; Return value:  Size  Location     Type
  5002 ;;                  1    wreg      enum E22462
  5003 ;; Registers used:
  5004 ;;		wreg, fsr2l, fsr2h, status,2, status,0, prodl, prodh
  5005 ;; Tracked objects:
  5006 ;;		On entry : 0/0
  5007 ;;		On exit  : 0/0
  5008 ;;		Unchanged: 0/0
  5009 ;; Data sizes:     COMRAM   BANK5   BANK6   BANK7   BANK8   BANK9  BANK10  BANK11  BANK12  BANK13  BANK14  BANK15  BANK1
      +6  BANK17  BANK18  BANK19  BANK20  BANK21  BANK22  BANK23  BANK24  BANK25  BANK26  BANK27  BANK28  BANK29  BANK30  BANK3
      +1  BANK32  BANK33  BANK34  BANK35  BANK36  BANK37  BANK38  BANK39  BANK40  BANK41  BANK42  BANK43  BANK44  BANK45  BANK4
      +6  BANK47  BANK48  BANK49  BANK50  BANK51  BANK52  BANK53  BANK54  BANK55
  5010 ;;      Params:         0       0       0       0       0       0       0       0       0       0       0       0       
      +0       0       0       0       0       0       0       0       0       0       0       0       0       0       0       
      +0       0       0       0       0       0       0       0       0       0       0       0       0       0       0       
      +0       0       0       0       0       0       0       0       0       0
  5011 ;;      Locals:         1       0       0       0       0       0       0       0       0       0       0       0       
      +0       0       0       0       0       0       0       0       0       0       0       0       0       0       0       
      +0       0       0       0       0       0       0       0       0       0       0       0       0       0       0       
      +0       0       0       0       0       0       0       0       0       0
  5012 ;;      Temps:          0       0       0       0       0       0       0       0       0       0       0       0       
      +0       0       0       0       0       0       0       0       0       0       0       0       0       0       0       
      +0       0       0       0       0       0       0       0       0       0       0       0       0       0       0       
      +0       0       0       0       0       0       0       0       0       0
  5013 ;;      Totals:         1       0       0       0       0       0       0       0       0       0       0       0       
      +0       0       0       0       0       0       0       0       0       0       0       0       0       0       0       
      +0       0       0       0       0       0       0       0       0       0       0       0       0       0       0       
      +0       0       0       0       0       0       0       0       0       0
  5014 ;;Total ram usage:        1 bytes
  5015 ;; Hardware stack levels used: 1
  5016 ;; This function calls:
  5017 ;;		Nothing
  5018 ;; This function is called by:
  5019 ;;		_Receive
  5020 ;;		_CAN1_ReceivedMessageCountGet
  5021 ;; This function uses a non-reentrant model
  5022 ;;
  5023                           
  5024                           	psect	text42
  5025  00498E                     __ptext42:
  5026                           	callstack 0
  5027  00498E                     _GetRxFifoStatus:
  5028                           	callstack 119
  5029                           
  5030                           ;incstack = 0
  5031                           ;GetRxFifoStatus@validChannel stored from wreg
  5032  00498E  6E01               	movwf	GetRxFifoStatus@validChannel^(0+1280),c
  5033  004990                     
  5034                           ;mcc_generated_files/can1.c: 325: static CAN_RX_FIFO_STATUS GetRxFifoStatus(uint8_t vali
      +                          dChannel);mcc_generated_files/can1.c: 326: {;mcc_generated_files/can1.c: 327:     return
      +                           FIFO[validChannel].STAL & (CAN_RX_MSG_AVAILABLE | CAN_RX_MSG_OVERFLOW);
  5035  004990  5001               	movf	GetRxFifoStatus@validChannel^(0+1280),w,c
  5036  004992  0D0C               	mullw	12
  5037  004994  0E54               	movlw	84
  5038  004996  24F3               	addwf	243,w,c
  5039  004998  6ED9               	movwf	fsr2l,c
  5040  00499A  0E01               	movlw	1
  5041  00499C  20F4               	addwfc	prodh,w,c
  5042  00499E  6EDA               	movwf	fsr2h,c
  5043  0049A0  50DF               	movf	indf2,w,c
  5044  0049A2  0B09               	andlw	9
  5045  0049A4  0012               	return		;funcret
  5046  0049A6                     __end_of_GetRxFifoStatus:
  5047                           	callstack 0
  5048                           
  5049 ;; *************** function _GetRxFifoDepth *****************
  5050 ;; Defined at:
  5051 ;;		line 320 in file "mcc_generated_files/can1.c"
  5052 ;; Parameters:    Size  Location     Type
  5053 ;;  validChannel    1    wreg     unsigned char 
  5054 ;; Auto vars:     Size  Location     Type
  5055 ;;  validChannel    1    1[COMRAM] unsigned char 
  5056 ;; Return value:  Size  Location     Type
  5057 ;;                  1    wreg      unsigned char 
  5058 ;; Registers used:
  5059 ;;		wreg, fsr2l, fsr2h, status,2, status,0, prodl, prodh
  5060 ;; Tracked objects:
  5061 ;;		On entry : 0/0
  5062 ;;		On exit  : 0/0
  5063 ;;		Unchanged: 0/0
  5064 ;; Data sizes:     COMRAM   BANK5   BANK6   BANK7   BANK8   BANK9  BANK10  BANK11  BANK12  BANK13  BANK14  BANK15  BANK1
      +6  BANK17  BANK18  BANK19  BANK20  BANK21  BANK22  BANK23  BANK24  BANK25  BANK26  BANK27  BANK28  BANK29  BANK30  BANK3
      +1  BANK32  BANK33  BANK34  BANK35  BANK36  BANK37  BANK38  BANK39  BANK40  BANK41  BANK42  BANK43  BANK44  BANK45  BANK4
      +6  BANK47  BANK48  BANK49  BANK50  BANK51  BANK52  BANK53  BANK54  BANK55
  5065 ;;      Params:         0       0       0       0       0       0       0       0       0       0       0       0       
      +0       0       0       0       0       0       0       0       0       0       0       0       0       0       0       
      +0       0       0       0       0       0       0       0       0       0       0       0       0       0       0       
      +0       0       0       0       0       0       0       0       0       0
  5066 ;;      Locals:         1       0       0       0       0       0       0       0       0       0       0       0       
      +0       0       0       0       0       0       0       0       0       0       0       0       0       0       0       
      +0       0       0       0       0       0       0       0       0       0       0       0       0       0       0       
      +0       0       0       0       0       0       0       0       0       0
  5067 ;;      Temps:          1       0       0       0       0       0       0       0       0       0       0       0       
      +0       0       0       0       0       0       0       0       0       0       0       0       0       0       0       
      +0       0       0       0       0       0       0       0       0       0       0       0       0       0       0       
      +0       0       0       0       0       0       0       0       0       0
  5068 ;;      Totals:         2       0       0       0       0       0       0       0       0       0       0       0       
      +0       0       0       0       0       0       0       0       0       0       0       0       0       0       0       
      +0       0       0       0       0       0       0       0       0       0       0       0       0       0       0       
      +0       0       0       0       0       0       0       0       0       0
  5069 ;;Total ram usage:        2 bytes
  5070 ;; Hardware stack levels used: 1
  5071 ;; This function calls:
  5072 ;;		Nothing
  5073 ;; This function is called by:
  5074 ;;		_Receive
  5075 ;;		_CAN1_ReceivedMessageCountGet
  5076 ;; This function uses a non-reentrant model
  5077 ;;
  5078                           
  5079                           	psect	text43
  5080  00493E                     __ptext43:
  5081                           	callstack 0
  5082  00493E                     _GetRxFifoDepth:
  5083                           	callstack 119
  5084                           
  5085                           ;incstack = 0
  5086                           ;GetRxFifoDepth@validChannel stored from wreg
  5087  00493E  6E02               	movwf	GetRxFifoDepth@validChannel^(0+1280),c
  5088  004940                     
  5089                           ;mcc_generated_files/can1.c: 320: static uint8_t GetRxFifoDepth(uint8_t validChannel);mc
      +                          c_generated_files/can1.c: 321: {;mcc_generated_files/can1.c: 322:     return 1U + (FIFO[
      +                          validChannel].CONT & 0x1F);
  5090  004940  5002               	movf	GetRxFifoDepth@validChannel^(0+1280),w,c
  5091  004942  0D0C               	mullw	12
  5092  004944  0E53               	movlw	83
  5093  004946  24F3               	addwf	243,w,c
  5094  004948  6ED9               	movwf	fsr2l,c
  5095  00494A  0E01               	movlw	1
  5096  00494C  20F4               	addwfc	prodh,w,c
  5097  00494E  6EDA               	movwf	fsr2h,c
  5098  004950  50DF               	movf	indf2,w,c
  5099  004952  6E01               	movwf	??_GetRxFifoDepth^(0+1280),c
  5100  004954  0E1F               	movlw	31
  5101  004956  1601               	andwf	??_GetRxFifoDepth^(0+1280),f,c
  5102  004958  2801               	incf	??_GetRxFifoDepth^(0+1280),w,c
  5103  00495A  0012               	return		;funcret
  5104  00495C                     __end_of_GetRxFifoDepth:
  5105                           	callstack 0
  5106                           
  5107 ;; *************** function _CAN1_ISR *****************
  5108 ;; Defined at:
  5109 ;;		line 666 in file "mcc_generated_files/can1.c"
  5110 ;; Parameters:    Size  Location     Type
  5111 ;;		None
  5112 ;; Auto vars:     Size  Location     Type
  5113 ;;		None
  5114 ;; Return value:  Size  Location     Type
  5115 ;;                  1    wreg      void 
  5116 ;; Registers used:
  5117 ;;		wreg, pclath, tosl, cstack
  5118 ;; Tracked objects:
  5119 ;;		On entry : 0/0
  5120 ;;		On exit  : 0/0
  5121 ;;		Unchanged: 0/0
  5122 ;; Data sizes:     COMRAM   BANK5   BANK6   BANK7   BANK8   BANK9  BANK10  BANK11  BANK12  BANK13  BANK14  BANK15  BANK1
      +6  BANK17  BANK18  BANK19  BANK20  BANK21  BANK22  BANK23  BANK24  BANK25  BANK26  BANK27  BANK28  BANK29  BANK30  BANK3
      +1  BANK32  BANK33  BANK34  BANK35  BANK36  BANK37  BANK38  BANK39  BANK40  BANK41  BANK42  BANK43  BANK44  BANK45  BANK4
      +6  BANK47  BANK48  BANK49  BANK50  BANK51  BANK52  BANK53  BANK54  BANK55
  5123 ;;      Params:         0       0       0       0       0       0       0       0       0       0       0       0       
      +0       0       0       0       0       0       0       0       0       0       0       0       0       0       0       
      +0       0       0       0       0       0       0       0       0       0       0       0       0       0       0       
      +0       0       0       0       0       0       0       0       0       0
  5124 ;;      Locals:         0       0       0       0       0       0       0       0       0       0       0       0       
      +0       0       0       0       0       0       0       0       0       0       0       0       0       0       0       
      +0       0       0       0       0       0       0       0       0       0       0       0       0       0       0       
      +0       0       0       0       0       0       0       0       0       0
  5125 ;;      Temps:          0       0       0       0       0       0       0       0       0       0       0       0       
      +0       0       0       0       0       0       0       0       0       0       0       0       0       0       0       
      +0       0       0       0       0       0       0       0       0       0       0       0       0       0       0       
      +0       0       0       0       0       0       0       0       0       0
  5126 ;;      Totals:         0       0       0       0       0       0       0       0       0       0       0       0       
      +0       0       0       0       0       0       0       0       0       0       0       0       0       0       0       
      +0       0       0       0       0       0       0       0       0       0       0       0       0       0       0       
      +0       0       0       0       0       0       0       0       0       0
  5127 ;;Total ram usage:        0 bytes
  5128 ;; Hardware stack levels used: 1
  5129 ;; Hardware stack levels required when called: 1
  5130 ;; This function calls:
  5131 ;;		Absolute function
  5132 ;;		_DefaultBusErrorHandler
  5133 ;;		_DefaultBusWakeUpActivityHandler
  5134 ;;		_DefaultInvalidMessageHandler
  5135 ;;		_DefaultModeChangeHandler
  5136 ;;		_DefaultRxBufferOverflowHandler
  5137 ;;		_DefaultSystemErrorHandler
  5138 ;;		_DefaultTxAttemptHandler
  5139 ;; This function is called by:
  5140 ;;		_INTERRUPT_InterruptManager
  5141 ;; This function uses a non-reentrant model
  5142 ;;
  5143                           
  5144                           	psect	text44
  5145  003EC0                     __ptext44:
  5146                           	callstack 0
  5147  003EC0                     _CAN1_ISR:
  5148                           	callstack 121
  5149  003EC0                     
  5150                           ;mcc_generated_files/can1.c: 668:     if (1 == C1INTHbits.IVMIF)
  5151  003EC0  0101               	movlb	1	; () banked
  5152  003EC2  AF1D               	btfss	29,7,b	;volatile
  5153  003EC4  EF66  F01F         	goto	i2u177_41
  5154  003EC8  EF68  F01F         	goto	i2u177_40
  5155  003ECC                     i2u177_41:
  5156  003ECC  EF78  F01F         	goto	i2l2565
  5157  003ED0                     i2u177_40:
  5158  003ED0                     
  5159                           ; BSR set to: 1
  5160                           ;mcc_generated_files/can1.c: 669:     {;mcc_generated_files/can1.c: 670:         CAN1_In
      +                          validMessageHandler();
  5161  003ED0  D802               	call	i2u178_48
  5162  003ED2  EF76  F01F         	goto	i2u178_49
  5163  003ED6                     i2u178_48:
  5164  003ED6  0005               	push	
  5165  003ED8  6EFA               	movwf	pclath,c
  5166  003EDA  0105               	movlb	5	; () banked
  5167  003EDC  5172               	movf	_CAN1_InvalidMessageHandler& (0+255),w,b
  5168  003EDE  6EFD               	movwf	tosl,c
  5169  003EE0  5173               	movf	(_CAN1_InvalidMessageHandler+1)& (0+255),w,b
  5170  003EE2  6EFE               	movwf	tosh,c
  5171  003EE4  5174               	movf	(_CAN1_InvalidMessageHandler+2)& (0+255),w,b
  5172  003EE6  6EFF               	movwf	tosu,c
  5173  003EE8  50FA               	movf	pclath,w,c
  5174  003EEA  0012               	return		;indir
  5175  003EEC                     i2u178_49:
  5176  003EEC                     
  5177                           ;mcc_generated_files/can1.c: 671:         C1INTHbits.IVMIF = 0;
  5178  003EEC  0101               	movlb	1	; () banked
  5179  003EEE  9F1D               	bcf	29,7,b	;volatile
  5180  003EF0                     i2l2565:
  5181                           
  5182                           ; BSR set to: 1
  5183                           ;mcc_generated_files/can1.c: 674:     if (1 == C1INTHbits.WAKIF)
  5184  003EF0  AD1D               	btfss	29,6,b	;volatile
  5185  003EF2  EF7D  F01F         	goto	i2u179_41
  5186  003EF6  EF7F  F01F         	goto	i2u179_40
  5187  003EFA                     i2u179_41:
  5188  003EFA  EF8F  F01F         	goto	i2l2571
  5189  003EFE                     i2u179_40:
  5190  003EFE                     
  5191                           ; BSR set to: 1
  5192                           ;mcc_generated_files/can1.c: 675:     {;mcc_generated_files/can1.c: 676:         CAN1_Bu
      +                          sWakeUpActivityHandler();
  5193  003EFE  D802               	call	i2u180_48
  5194  003F00  EF8D  F01F         	goto	i2u180_49
  5195  003F04                     i2u180_48:
  5196  003F04  0005               	push	
  5197  003F06  6EFA               	movwf	pclath,c
  5198  003F08  0105               	movlb	5	; () banked
  5199  003F0A  516F               	movf	_CAN1_BusWakeUpActivityHandler& (0+255),w,b
  5200  003F0C  6EFD               	movwf	tosl,c
  5201  003F0E  5170               	movf	(_CAN1_BusWakeUpActivityHandler+1)& (0+255),w,b
  5202  003F10  6EFE               	movwf	tosh,c
  5203  003F12  5171               	movf	(_CAN1_BusWakeUpActivityHandler+2)& (0+255),w,b
  5204  003F14  6EFF               	movwf	tosu,c
  5205  003F16  50FA               	movf	pclath,w,c
  5206  003F18  0012               	return		;indir
  5207  003F1A                     i2u180_49:
  5208  003F1A                     
  5209                           ;mcc_generated_files/can1.c: 677:         C1INTHbits.WAKIF = 0;
  5210  003F1A  0101               	movlb	1	; () banked
  5211  003F1C  9D1D               	bcf	29,6,b	;volatile
  5212  003F1E                     i2l2571:
  5213                           
  5214                           ; BSR set to: 1
  5215                           ;mcc_generated_files/can1.c: 680:     if (1 == C1INTHbits.CERRIF)
  5216  003F1E  AB1D               	btfss	29,5,b	;volatile
  5217  003F20  EF94  F01F         	goto	i2u181_41
  5218  003F24  EF96  F01F         	goto	i2u181_40
  5219  003F28                     i2u181_41:
  5220  003F28  EFA6  F01F         	goto	i2l2577
  5221  003F2C                     i2u181_40:
  5222  003F2C                     
  5223                           ; BSR set to: 1
  5224                           ;mcc_generated_files/can1.c: 681:     {;mcc_generated_files/can1.c: 682:         CAN1_Bu
      +                          sErrorHandler();
  5225  003F2C  D802               	call	i2u182_48
  5226  003F2E  EFA4  F01F         	goto	i2u182_49
  5227  003F32                     i2u182_48:
  5228  003F32  0005               	push	
  5229  003F34  6EFA               	movwf	pclath,c
  5230  003F36  0105               	movlb	5	; () banked
  5231  003F38  516C               	movf	_CAN1_BusErrorHandler& (0+255),w,b
  5232  003F3A  6EFD               	movwf	tosl,c
  5233  003F3C  516D               	movf	(_CAN1_BusErrorHandler+1)& (0+255),w,b
  5234  003F3E  6EFE               	movwf	tosh,c
  5235  003F40  516E               	movf	(_CAN1_BusErrorHandler+2)& (0+255),w,b
  5236  003F42  6EFF               	movwf	tosu,c
  5237  003F44  50FA               	movf	pclath,w,c
  5238  003F46  0012               	return		;indir
  5239  003F48                     i2u182_49:
  5240  003F48                     
  5241                           ;mcc_generated_files/can1.c: 683:         C1INTHbits.CERRIF = 0;
  5242  003F48  0101               	movlb	1	; () banked
  5243  003F4A  9B1D               	bcf	29,5,b	;volatile
  5244  003F4C                     i2l2577:
  5245                           
  5246                           ; BSR set to: 1
  5247                           ;mcc_generated_files/can1.c: 686:     if (1 == C1INTLbits.MODIF)
  5248  003F4C  A71C               	btfss	28,3,b	;volatile
  5249  003F4E  EFAB  F01F         	goto	i2u183_41
  5250  003F52  EFAD  F01F         	goto	i2u183_40
  5251  003F56                     i2u183_41:
  5252  003F56  EFBD  F01F         	goto	i2l2583
  5253  003F5A                     i2u183_40:
  5254  003F5A                     
  5255                           ; BSR set to: 1
  5256                           ;mcc_generated_files/can1.c: 687:     {;mcc_generated_files/can1.c: 688:         CAN1_Mo
      +                          deChangeHandler();
  5257  003F5A  D802               	call	i2u184_48
  5258  003F5C  EFBB  F01F         	goto	i2u184_49
  5259  003F60                     i2u184_48:
  5260  003F60  0005               	push	
  5261  003F62  6EFA               	movwf	pclath,c
  5262  003F64  0105               	movlb	5	; () banked
  5263  003F66  5169               	movf	_CAN1_ModeChangeHandler& (0+255),w,b
  5264  003F68  6EFD               	movwf	tosl,c
  5265  003F6A  516A               	movf	(_CAN1_ModeChangeHandler+1)& (0+255),w,b
  5266  003F6C  6EFE               	movwf	tosh,c
  5267  003F6E  516B               	movf	(_CAN1_ModeChangeHandler+2)& (0+255),w,b
  5268  003F70  6EFF               	movwf	tosu,c
  5269  003F72  50FA               	movf	pclath,w,c
  5270  003F74  0012               	return		;indir
  5271  003F76                     i2u184_49:
  5272  003F76                     
  5273                           ;mcc_generated_files/can1.c: 689:         C1INTLbits.MODIF = 0;
  5274  003F76  0101               	movlb	1	; () banked
  5275  003F78  971C               	bcf	28,3,b	;volatile
  5276  003F7A                     i2l2583:
  5277                           
  5278                           ; BSR set to: 1
  5279                           ;mcc_generated_files/can1.c: 692:     if (1 == C1INTHbits.SERRIF)
  5280  003F7A  A91D               	btfss	29,4,b	;volatile
  5281  003F7C  EFC2  F01F         	goto	i2u185_41
  5282  003F80  EFC4  F01F         	goto	i2u185_40
  5283  003F84                     i2u185_41:
  5284  003F84  EFD4  F01F         	goto	i2l2589
  5285  003F88                     i2u185_40:
  5286  003F88                     
  5287                           ; BSR set to: 1
  5288                           ;mcc_generated_files/can1.c: 693:     {;mcc_generated_files/can1.c: 694:         CAN1_Sy
      +                          stemErrorHandler();
  5289  003F88  D802               	call	i2u186_48
  5290  003F8A  EFD2  F01F         	goto	i2u186_49
  5291  003F8E                     i2u186_48:
  5292  003F8E  0005               	push	
  5293  003F90  6EFA               	movwf	pclath,c
  5294  003F92  0105               	movlb	5	; () banked
  5295  003F94  5166               	movf	_CAN1_SystemErrorHandler& (0+255),w,b
  5296  003F96  6EFD               	movwf	tosl,c
  5297  003F98  5167               	movf	(_CAN1_SystemErrorHandler+1)& (0+255),w,b
  5298  003F9A  6EFE               	movwf	tosh,c
  5299  003F9C  5168               	movf	(_CAN1_SystemErrorHandler+2)& (0+255),w,b
  5300  003F9E  6EFF               	movwf	tosu,c
  5301  003FA0  50FA               	movf	pclath,w,c
  5302  003FA2  0012               	return		;indir
  5303  003FA4                     i2u186_49:
  5304  003FA4                     
  5305                           ;mcc_generated_files/can1.c: 695:         C1INTHbits.SERRIF = 0;
  5306  003FA4  0101               	movlb	1	; () banked
  5307  003FA6  991D               	bcf	29,4,b	;volatile
  5308  003FA8                     i2l2589:
  5309                           
  5310                           ; BSR set to: 1
  5311                           ;mcc_generated_files/can1.c: 698:     if (1 == C1INTHbits.TXATIF)
  5312  003FA8  A51D               	btfss	29,2,b	;volatile
  5313  003FAA  EFD9  F01F         	goto	i2u187_41
  5314  003FAE  EFDB  F01F         	goto	i2u187_40
  5315  003FB2                     i2u187_41:
  5316  003FB2  EFF2  F01F         	goto	i2l467
  5317  003FB6                     i2u187_40:
  5318  003FB6                     
  5319                           ; BSR set to: 1
  5320                           ;mcc_generated_files/can1.c: 699:     {;mcc_generated_files/can1.c: 700:         CAN1_Tx
      +                          AttemptHandler();
  5321  003FB6  D802               	call	i2u188_48
  5322  003FB8  EFE9  F01F         	goto	i2u188_49
  5323  003FBC                     i2u188_48:
  5324  003FBC  0005               	push	
  5325  003FBE  6EFA               	movwf	pclath,c
  5326  003FC0  0105               	movlb	5	; () banked
  5327  003FC2  5163               	movf	_CAN1_TxAttemptHandler& (0+255),w,b
  5328  003FC4  6EFD               	movwf	tosl,c
  5329  003FC6  5164               	movf	(_CAN1_TxAttemptHandler+1)& (0+255),w,b
  5330  003FC8  6EFE               	movwf	tosh,c
  5331  003FCA  5165               	movf	(_CAN1_TxAttemptHandler+2)& (0+255),w,b
  5332  003FCC  6EFF               	movwf	tosu,c
  5333  003FCE  50FA               	movf	pclath,w,c
  5334  003FD0  0012               	return		;indir
  5335  003FD2                     i2u188_49:
  5336  003FD2                     
  5337                           ;mcc_generated_files/can1.c: 701:         if (1 == C1TXQSTALbits.TXATIF)
  5338  003FD2  0101               	movlb	1	; () banked
  5339  003FD4  A954               	btfss	84,4,b	;volatile
  5340  003FD6  EFEF  F01F         	goto	i2u189_41
  5341  003FDA  EFF1  F01F         	goto	i2u189_40
  5342  003FDE                     i2u189_41:
  5343  003FDE  EFF2  F01F         	goto	i2l467
  5344  003FE2                     i2u189_40:
  5345  003FE2                     
  5346                           ; BSR set to: 1
  5347                           ;mcc_generated_files/can1.c: 702:         {;mcc_generated_files/can1.c: 703:            
      +                           C1TXQSTALbits.TXATIF = 0;
  5348  003FE2  9954               	bcf	84,4,b	;volatile
  5349  003FE4                     i2l467:
  5350                           
  5351                           ; BSR set to: 1
  5352                           ;mcc_generated_files/can1.c: 707:     if (1 == C1INTHbits.RXOVIF)
  5353  003FE4  A71D               	btfss	29,3,b	;volatile
  5354  003FE6  EFF7  F01F         	goto	i2u190_41
  5355  003FEA  EFF9  F01F         	goto	i2u190_40
  5356  003FEE                     i2u190_41:
  5357  003FEE  EF10  F020         	goto	i2l469
  5358  003FF2                     i2u190_40:
  5359  003FF2                     
  5360                           ; BSR set to: 1
  5361                           ;mcc_generated_files/can1.c: 708:     {;mcc_generated_files/can1.c: 709:         CAN1_Rx
      +                          BufferOverflowHandler();
  5362  003FF2  D802               	call	i2u191_48
  5363  003FF4  EF07  F020         	goto	i2u191_49
  5364  003FF8                     i2u191_48:
  5365  003FF8  0005               	push	
  5366  003FFA  6EFA               	movwf	pclath,c
  5367  003FFC  0105               	movlb	5	; () banked
  5368  003FFE  5160               	movf	_CAN1_RxBufferOverflowHandler& (0+255),w,b
  5369  004000  6EFD               	movwf	tosl,c
  5370  004002  5161               	movf	(_CAN1_RxBufferOverflowHandler+1)& (0+255),w,b
  5371  004004  6EFE               	movwf	tosh,c
  5372  004006  5162               	movf	(_CAN1_RxBufferOverflowHandler+2)& (0+255),w,b
  5373  004008  6EFF               	movwf	tosu,c
  5374  00400A  50FA               	movf	pclath,w,c
  5375  00400C  0012               	return		;indir
  5376  00400E                     i2u191_49:
  5377  00400E                     
  5378                           ;mcc_generated_files/can1.c: 710:         if (1 == C1FIFOSTA1Lbits.RXOVIF)
  5379  00400E  0101               	movlb	1	; () banked
  5380  004010  A760               	btfss	96,3,b	;volatile
  5381  004012  EF0D  F020         	goto	i2u192_41
  5382  004016  EF0F  F020         	goto	i2u192_40
  5383  00401A                     i2u192_41:
  5384  00401A  EF10  F020         	goto	i2l469
  5385  00401E                     i2u192_40:
  5386  00401E                     
  5387                           ; BSR set to: 1
  5388                           ;mcc_generated_files/can1.c: 711:         {;mcc_generated_files/can1.c: 712:            
      +                           C1FIFOSTA1Lbits.RXOVIF = 0;
  5389  00401E  9760               	bcf	96,3,b	;volatile
  5390  004020                     i2l469:
  5391                           
  5392                           ; BSR set to: 1
  5393                           ;mcc_generated_files/can1.c: 716:     PIR0bits.CANIF = 0;
  5394  004020  9CAE               	bcf	174,6,c	;volatile
  5395  004022                     
  5396                           ; BSR set to: 1
  5397  004022  0012               	return		;funcret
  5398  004024                     __end_of_CAN1_ISR:
  5399                           	callstack 0
  5400                           
  5401 ;; *************** function _DefaultTxAttemptHandler *****************
  5402 ;; Defined at:
  5403 ;;		line 143 in file "mcc_generated_files/can1.c"
  5404 ;; Parameters:    Size  Location     Type
  5405 ;;		None
  5406 ;; Auto vars:     Size  Location     Type
  5407 ;;		None
  5408 ;; Return value:  Size  Location     Type
  5409 ;;                  1    wreg      void 
  5410 ;; Registers used:
  5411 ;;		None
  5412 ;; Tracked objects:
  5413 ;;		On entry : 0/0
  5414 ;;		On exit  : 0/0
  5415 ;;		Unchanged: 0/0
  5416 ;; Data sizes:     COMRAM   BANK5   BANK6   BANK7   BANK8   BANK9  BANK10  BANK11  BANK12  BANK13  BANK14  BANK15  BANK1
      +6  BANK17  BANK18  BANK19  BANK20  BANK21  BANK22  BANK23  BANK24  BANK25  BANK26  BANK27  BANK28  BANK29  BANK30  BANK3
      +1  BANK32  BANK33  BANK34  BANK35  BANK36  BANK37  BANK38  BANK39  BANK40  BANK41  BANK42  BANK43  BANK44  BANK45  BANK4
      +6  BANK47  BANK48  BANK49  BANK50  BANK51  BANK52  BANK53  BANK54  BANK55
  5417 ;;      Params:         0       0       0       0       0       0       0       0       0       0       0       0       
      +0       0       0       0       0       0       0       0       0       0       0       0       0       0       0       
      +0       0       0       0       0       0       0       0       0       0       0       0       0       0       0       
      +0       0       0       0       0       0       0       0       0       0
  5418 ;;      Locals:         0       0       0       0       0       0       0       0       0       0       0       0       
      +0       0       0       0       0       0       0       0       0       0       0       0       0       0       0       
      +0       0       0       0       0       0       0       0       0       0       0       0       0       0       0       
      +0       0       0       0       0       0       0       0       0       0
  5419 ;;      Temps:          0       0       0       0       0       0       0       0       0       0       0       0       
      +0       0       0       0       0       0       0       0       0       0       0       0       0       0       0       
      +0       0       0       0       0       0       0       0       0       0       0       0       0       0       0       
      +0       0       0       0       0       0       0       0       0       0
  5420 ;;      Totals:         0       0       0       0       0       0       0       0       0       0       0       0       
      +0       0       0       0       0       0       0       0       0       0       0       0       0       0       0       
      +0       0       0       0       0       0       0       0       0       0       0       0       0       0       0       
      +0       0       0       0       0       0       0       0       0       0
  5421 ;;Total ram usage:        0 bytes
  5422 ;; Hardware stack levels used: 1
  5423 ;; This function calls:
  5424 ;;		Nothing
  5425 ;; This function is called by:
  5426 ;;		_CAN1_ErrorNotificationInterruptEnable
  5427 ;;		_CAN1_ISR
  5428 ;; This function uses a non-reentrant model
  5429 ;;
  5430                           
  5431                           	psect	text45
  5432  004A80                     __ptext45:
  5433                           	callstack 0
  5434  004A80                     _DefaultTxAttemptHandler:
  5435                           	callstack 121
  5436  004A80  0012               	return		;funcret
  5437  004A82                     __end_of_DefaultTxAttemptHandler:
  5438                           	callstack 0
  5439                           
  5440 ;; *************** function _DefaultSystemErrorHandler *****************
  5441 ;; Defined at:
  5442 ;;		line 139 in file "mcc_generated_files/can1.c"
  5443 ;; Parameters:    Size  Location     Type
  5444 ;;		None
  5445 ;; Auto vars:     Size  Location     Type
  5446 ;;		None
  5447 ;; Return value:  Size  Location     Type
  5448 ;;                  1    wreg      void 
  5449 ;; Registers used:
  5450 ;;		None
  5451 ;; Tracked objects:
  5452 ;;		On entry : 0/0
  5453 ;;		On exit  : 0/0
  5454 ;;		Unchanged: 0/0
  5455 ;; Data sizes:     COMRAM   BANK5   BANK6   BANK7   BANK8   BANK9  BANK10  BANK11  BANK12  BANK13  BANK14  BANK15  BANK1
      +6  BANK17  BANK18  BANK19  BANK20  BANK21  BANK22  BANK23  BANK24  BANK25  BANK26  BANK27  BANK28  BANK29  BANK30  BANK3
      +1  BANK32  BANK33  BANK34  BANK35  BANK36  BANK37  BANK38  BANK39  BANK40  BANK41  BANK42  BANK43  BANK44  BANK45  BANK4
      +6  BANK47  BANK48  BANK49  BANK50  BANK51  BANK52  BANK53  BANK54  BANK55
  5456 ;;      Params:         0       0       0       0       0       0       0       0       0       0       0       0       
      +0       0       0       0       0       0       0       0       0       0       0       0       0       0       0       
      +0       0       0       0       0       0       0       0       0       0       0       0       0       0       0       
      +0       0       0       0       0       0       0       0       0       0
  5457 ;;      Locals:         0       0       0       0       0       0       0       0       0       0       0       0       
      +0       0       0       0       0       0       0       0       0       0       0       0       0       0       0       
      +0       0       0       0       0       0       0       0       0       0       0       0       0       0       0       
      +0       0       0       0       0       0       0       0       0       0
  5458 ;;      Temps:          0       0       0       0       0       0       0       0       0       0       0       0       
      +0       0       0       0       0       0       0       0       0       0       0       0       0       0       0       
      +0       0       0       0       0       0       0       0       0       0       0       0       0       0       0       
      +0       0       0       0       0       0       0       0       0       0
  5459 ;;      Totals:         0       0       0       0       0       0       0       0       0       0       0       0       
      +0       0       0       0       0       0       0       0       0       0       0       0       0       0       0       
      +0       0       0       0       0       0       0       0       0       0       0       0       0       0       0       
      +0       0       0       0       0       0       0       0       0       0
  5460 ;;Total ram usage:        0 bytes
  5461 ;; Hardware stack levels used: 1
  5462 ;; This function calls:
  5463 ;;		Nothing
  5464 ;; This function is called by:
  5465 ;;		_CAN1_ErrorNotificationInterruptEnable
  5466 ;;		_CAN1_ISR
  5467 ;; This function uses a non-reentrant model
  5468 ;;
  5469                           
  5470                           	psect	text46
  5471  004A82                     __ptext46:
  5472                           	callstack 0
  5473  004A82                     _DefaultSystemErrorHandler:
  5474                           	callstack 121
  5475  004A82  0012               	return		;funcret
  5476  004A84                     __end_of_DefaultSystemErrorHandler:
  5477                           	callstack 0
  5478                           
  5479 ;; *************** function _DefaultRxBufferOverflowHandler *****************
  5480 ;; Defined at:
  5481 ;;		line 147 in file "mcc_generated_files/can1.c"
  5482 ;; Parameters:    Size  Location     Type
  5483 ;;		None
  5484 ;; Auto vars:     Size  Location     Type
  5485 ;;		None
  5486 ;; Return value:  Size  Location     Type
  5487 ;;                  1    wreg      void 
  5488 ;; Registers used:
  5489 ;;		None
  5490 ;; Tracked objects:
  5491 ;;		On entry : 0/0
  5492 ;;		On exit  : 0/0
  5493 ;;		Unchanged: 0/0
  5494 ;; Data sizes:     COMRAM   BANK5   BANK6   BANK7   BANK8   BANK9  BANK10  BANK11  BANK12  BANK13  BANK14  BANK15  BANK1
      +6  BANK17  BANK18  BANK19  BANK20  BANK21  BANK22  BANK23  BANK24  BANK25  BANK26  BANK27  BANK28  BANK29  BANK30  BANK3
      +1  BANK32  BANK33  BANK34  BANK35  BANK36  BANK37  BANK38  BANK39  BANK40  BANK41  BANK42  BANK43  BANK44  BANK45  BANK4
      +6  BANK47  BANK48  BANK49  BANK50  BANK51  BANK52  BANK53  BANK54  BANK55
  5495 ;;      Params:         0       0       0       0       0       0       0       0       0       0       0       0       
      +0       0       0       0       0       0       0       0       0       0       0       0       0       0       0       
      +0       0       0       0       0       0       0       0       0       0       0       0       0       0       0       
      +0       0       0       0       0       0       0       0       0       0
  5496 ;;      Locals:         0       0       0       0       0       0       0       0       0       0       0       0       
      +0       0       0       0       0       0       0       0       0       0       0       0       0       0       0       
      +0       0       0       0       0       0       0       0       0       0       0       0       0       0       0       
      +0       0       0       0       0       0       0       0       0       0
  5497 ;;      Temps:          0       0       0       0       0       0       0       0       0       0       0       0       
      +0       0       0       0       0       0       0       0       0       0       0       0       0       0       0       
      +0       0       0       0       0       0       0       0       0       0       0       0       0       0       0       
      +0       0       0       0       0       0       0       0       0       0
  5498 ;;      Totals:         0       0       0       0       0       0       0       0       0       0       0       0       
      +0       0       0       0       0       0       0       0       0       0       0       0       0       0       0       
      +0       0       0       0       0       0       0       0       0       0       0       0       0       0       0       
      +0       0       0       0       0       0       0       0       0       0
  5499 ;;Total ram usage:        0 bytes
  5500 ;; Hardware stack levels used: 1
  5501 ;; This function calls:
  5502 ;;		Nothing
  5503 ;; This function is called by:
  5504 ;;		_CAN1_ErrorNotificationInterruptEnable
  5505 ;;		_CAN1_ISR
  5506 ;; This function uses a non-reentrant model
  5507 ;;
  5508                           
  5509                           	psect	text47
  5510  004A84                     __ptext47:
  5511                           	callstack 0
  5512  004A84                     _DefaultRxBufferOverflowHandler:
  5513                           	callstack 121
  5514  004A84  0012               	return		;funcret
  5515  004A86                     __end_of_DefaultRxBufferOverflowHandler:
  5516                           	callstack 0
  5517                           
  5518 ;; *************** function _DefaultModeChangeHandler *****************
  5519 ;; Defined at:
  5520 ;;		line 135 in file "mcc_generated_files/can1.c"
  5521 ;; Parameters:    Size  Location     Type
  5522 ;;		None
  5523 ;; Auto vars:     Size  Location     Type
  5524 ;;		None
  5525 ;; Return value:  Size  Location     Type
  5526 ;;                  1    wreg      void 
  5527 ;; Registers used:
  5528 ;;		None
  5529 ;; Tracked objects:
  5530 ;;		On entry : 0/0
  5531 ;;		On exit  : 0/0
  5532 ;;		Unchanged: 0/0
  5533 ;; Data sizes:     COMRAM   BANK5   BANK6   BANK7   BANK8   BANK9  BANK10  BANK11  BANK12  BANK13  BANK14  BANK15  BANK1
      +6  BANK17  BANK18  BANK19  BANK20  BANK21  BANK22  BANK23  BANK24  BANK25  BANK26  BANK27  BANK28  BANK29  BANK30  BANK3
      +1  BANK32  BANK33  BANK34  BANK35  BANK36  BANK37  BANK38  BANK39  BANK40  BANK41  BANK42  BANK43  BANK44  BANK45  BANK4
      +6  BANK47  BANK48  BANK49  BANK50  BANK51  BANK52  BANK53  BANK54  BANK55
  5534 ;;      Params:         0       0       0       0       0       0       0       0       0       0       0       0       
      +0       0       0       0       0       0       0       0       0       0       0       0       0       0       0       
      +0       0       0       0       0       0       0       0       0       0       0       0       0       0       0       
      +0       0       0       0       0       0       0       0       0       0
  5535 ;;      Locals:         0       0       0       0       0       0       0       0       0       0       0       0       
      +0       0       0       0       0       0       0       0       0       0       0       0       0       0       0       
      +0       0       0       0       0       0       0       0       0       0       0       0       0       0       0       
      +0       0       0       0       0       0       0       0       0       0
  5536 ;;      Temps:          0       0       0       0       0       0       0       0       0       0       0       0       
      +0       0       0       0       0       0       0       0       0       0       0       0       0       0       0       
      +0       0       0       0       0       0       0       0       0       0       0       0       0       0       0       
      +0       0       0       0       0       0       0       0       0       0
  5537 ;;      Totals:         0       0       0       0       0       0       0       0       0       0       0       0       
      +0       0       0       0       0       0       0       0       0       0       0       0       0       0       0       
      +0       0       0       0       0       0       0       0       0       0       0       0       0       0       0       
      +0       0       0       0       0       0       0       0       0       0
  5538 ;;Total ram usage:        0 bytes
  5539 ;; Hardware stack levels used: 1
  5540 ;; This function calls:
  5541 ;;		Nothing
  5542 ;; This function is called by:
  5543 ;;		_CAN1_ErrorNotificationInterruptEnable
  5544 ;;		_CAN1_ISR
  5545 ;; This function uses a non-reentrant model
  5546 ;;
  5547                           
  5548                           	psect	text48
  5549  004A86                     __ptext48:
  5550                           	callstack 0
  5551  004A86                     _DefaultModeChangeHandler:
  5552                           	callstack 121
  5553  004A86  0012               	return		;funcret
  5554  004A88                     __end_of_DefaultModeChangeHandler:
  5555                           	callstack 0
  5556                           
  5557 ;; *************** function _DefaultInvalidMessageHandler *****************
  5558 ;; Defined at:
  5559 ;;		line 123 in file "mcc_generated_files/can1.c"
  5560 ;; Parameters:    Size  Location     Type
  5561 ;;		None
  5562 ;; Auto vars:     Size  Location     Type
  5563 ;;		None
  5564 ;; Return value:  Size  Location     Type
  5565 ;;                  1    wreg      void 
  5566 ;; Registers used:
  5567 ;;		None
  5568 ;; Tracked objects:
  5569 ;;		On entry : 0/0
  5570 ;;		On exit  : 0/0
  5571 ;;		Unchanged: 0/0
  5572 ;; Data sizes:     COMRAM   BANK5   BANK6   BANK7   BANK8   BANK9  BANK10  BANK11  BANK12  BANK13  BANK14  BANK15  BANK1
      +6  BANK17  BANK18  BANK19  BANK20  BANK21  BANK22  BANK23  BANK24  BANK25  BANK26  BANK27  BANK28  BANK29  BANK30  BANK3
      +1  BANK32  BANK33  BANK34  BANK35  BANK36  BANK37  BANK38  BANK39  BANK40  BANK41  BANK42  BANK43  BANK44  BANK45  BANK4
      +6  BANK47  BANK48  BANK49  BANK50  BANK51  BANK52  BANK53  BANK54  BANK55
  5573 ;;      Params:         0       0       0       0       0       0       0       0       0       0       0       0       
      +0       0       0       0       0       0       0       0       0       0       0       0       0       0       0       
      +0       0       0       0       0       0       0       0       0       0       0       0       0       0       0       
      +0       0       0       0       0       0       0       0       0       0
  5574 ;;      Locals:         0       0       0       0       0       0       0       0       0       0       0       0       
      +0       0       0       0       0       0       0       0       0       0       0       0       0       0       0       
      +0       0       0       0       0       0       0       0       0       0       0       0       0       0       0       
      +0       0       0       0       0       0       0       0       0       0
  5575 ;;      Temps:          0       0       0       0       0       0       0       0       0       0       0       0       
      +0       0       0       0       0       0       0       0       0       0       0       0       0       0       0       
      +0       0       0       0       0       0       0       0       0       0       0       0       0       0       0       
      +0       0       0       0       0       0       0       0       0       0
  5576 ;;      Totals:         0       0       0       0       0       0       0       0       0       0       0       0       
      +0       0       0       0       0       0       0       0       0       0       0       0       0       0       0       
      +0       0       0       0       0       0       0       0       0       0       0       0       0       0       0       
      +0       0       0       0       0       0       0       0       0       0
  5577 ;;Total ram usage:        0 bytes
  5578 ;; Hardware stack levels used: 1
  5579 ;; This function calls:
  5580 ;;		Nothing
  5581 ;; This function is called by:
  5582 ;;		_CAN1_ErrorNotificationInterruptEnable
  5583 ;;		_CAN1_ISR
  5584 ;; This function uses a non-reentrant model
  5585 ;;
  5586                           
  5587                           	psect	text49
  5588  004A88                     __ptext49:
  5589                           	callstack 0
  5590  004A88                     _DefaultInvalidMessageHandler:
  5591                           	callstack 121
  5592  004A88  0012               	return		;funcret
  5593  004A8A                     __end_of_DefaultInvalidMessageHandler:
  5594                           	callstack 0
  5595                           
  5596 ;; *************** function _DefaultBusWakeUpActivityHandler *****************
  5597 ;; Defined at:
  5598 ;;		line 127 in file "mcc_generated_files/can1.c"
  5599 ;; Parameters:    Size  Location     Type
  5600 ;;		None
  5601 ;; Auto vars:     Size  Location     Type
  5602 ;;		None
  5603 ;; Return value:  Size  Location     Type
  5604 ;;                  1    wreg      void 
  5605 ;; Registers used:
  5606 ;;		None
  5607 ;; Tracked objects:
  5608 ;;		On entry : 0/0
  5609 ;;		On exit  : 0/0
  5610 ;;		Unchanged: 0/0
  5611 ;; Data sizes:     COMRAM   BANK5   BANK6   BANK7   BANK8   BANK9  BANK10  BANK11  BANK12  BANK13  BANK14  BANK15  BANK1
      +6  BANK17  BANK18  BANK19  BANK20  BANK21  BANK22  BANK23  BANK24  BANK25  BANK26  BANK27  BANK28  BANK29  BANK30  BANK3
      +1  BANK32  BANK33  BANK34  BANK35  BANK36  BANK37  BANK38  BANK39  BANK40  BANK41  BANK42  BANK43  BANK44  BANK45  BANK4
      +6  BANK47  BANK48  BANK49  BANK50  BANK51  BANK52  BANK53  BANK54  BANK55
  5612 ;;      Params:         0       0       0       0       0       0       0       0       0       0       0       0       
      +0       0       0       0       0       0       0       0       0       0       0       0       0       0       0       
      +0       0       0       0       0       0       0       0       0       0       0       0       0       0       0       
      +0       0       0       0       0       0       0       0       0       0
  5613 ;;      Locals:         0       0       0       0       0       0       0       0       0       0       0       0       
      +0       0       0       0       0       0       0       0       0       0       0       0       0       0       0       
      +0       0       0       0       0       0       0       0       0       0       0       0       0       0       0       
      +0       0       0       0       0       0       0       0       0       0
  5614 ;;      Temps:          0       0       0       0       0       0       0       0       0       0       0       0       
      +0       0       0       0       0       0       0       0       0       0       0       0       0       0       0       
      +0       0       0       0       0       0       0       0       0       0       0       0       0       0       0       
      +0       0       0       0       0       0       0       0       0       0
  5615 ;;      Totals:         0       0       0       0       0       0       0       0       0       0       0       0       
      +0       0       0       0       0       0       0       0       0       0       0       0       0       0       0       
      +0       0       0       0       0       0       0       0       0       0       0       0       0       0       0       
      +0       0       0       0       0       0       0       0       0       0
  5616 ;;Total ram usage:        0 bytes
  5617 ;; Hardware stack levels used: 1
  5618 ;; This function calls:
  5619 ;;		Nothing
  5620 ;; This function is called by:
  5621 ;;		_CAN1_ErrorNotificationInterruptEnable
  5622 ;;		_CAN1_ISR
  5623 ;; This function uses a non-reentrant model
  5624 ;;
  5625                           
  5626                           	psect	text50
  5627  004A8A                     __ptext50:
  5628                           	callstack 0
  5629  004A8A                     _DefaultBusWakeUpActivityHandler:
  5630                           	callstack 121
  5631  004A8A  0012               	return		;funcret
  5632  004A8C                     __end_of_DefaultBusWakeUpActivityHandler:
  5633                           	callstack 0
  5634                           
  5635 ;; *************** function _DefaultBusErrorHandler *****************
  5636 ;; Defined at:
  5637 ;;		line 131 in file "mcc_generated_files/can1.c"
  5638 ;; Parameters:    Size  Location     Type
  5639 ;;		None
  5640 ;; Auto vars:     Size  Location     Type
  5641 ;;		None
  5642 ;; Return value:  Size  Location     Type
  5643 ;;                  1    wreg      void 
  5644 ;; Registers used:
  5645 ;;		None
  5646 ;; Tracked objects:
  5647 ;;		On entry : 0/0
  5648 ;;		On exit  : 0/0
  5649 ;;		Unchanged: 0/0
  5650 ;; Data sizes:     COMRAM   BANK5   BANK6   BANK7   BANK8   BANK9  BANK10  BANK11  BANK12  BANK13  BANK14  BANK15  BANK1
      +6  BANK17  BANK18  BANK19  BANK20  BANK21  BANK22  BANK23  BANK24  BANK25  BANK26  BANK27  BANK28  BANK29  BANK30  BANK3
      +1  BANK32  BANK33  BANK34  BANK35  BANK36  BANK37  BANK38  BANK39  BANK40  BANK41  BANK42  BANK43  BANK44  BANK45  BANK4
      +6  BANK47  BANK48  BANK49  BANK50  BANK51  BANK52  BANK53  BANK54  BANK55
  5651 ;;      Params:         0       0       0       0       0       0       0       0       0       0       0       0       
      +0       0       0       0       0       0       0       0       0       0       0       0       0       0       0       
      +0       0       0       0       0       0       0       0       0       0       0       0       0       0       0       
      +0       0       0       0       0       0       0       0       0       0
  5652 ;;      Locals:         0       0       0       0       0       0       0       0       0       0       0       0       
      +0       0       0       0       0       0       0       0       0       0       0       0       0       0       0       
      +0       0       0       0       0       0       0       0       0       0       0       0       0       0       0       
      +0       0       0       0       0       0       0       0       0       0
  5653 ;;      Temps:          0       0       0       0       0       0       0       0       0       0       0       0       
      +0       0       0       0       0       0       0       0       0       0       0       0       0       0       0       
      +0       0       0       0       0       0       0       0       0       0       0       0       0       0       0       
      +0       0       0       0       0       0       0       0       0       0
  5654 ;;      Totals:         0       0       0       0       0       0       0       0       0       0       0       0       
      +0       0       0       0       0       0       0       0       0       0       0       0       0       0       0       
      +0       0       0       0       0       0       0       0       0       0       0       0       0       0       0       
      +0       0       0       0       0       0       0       0       0       0
  5655 ;;Total ram usage:        0 bytes
  5656 ;; Hardware stack levels used: 1
  5657 ;; This function calls:
  5658 ;;		Nothing
  5659 ;; This function is called by:
  5660 ;;		_CAN1_ErrorNotificationInterruptEnable
  5661 ;;		_CAN1_ISR
  5662 ;; This function uses a non-reentrant model
  5663 ;;
  5664                           
  5665                           	psect	text51
  5666  004A8C                     __ptext51:
  5667                           	callstack 0
  5668  004A8C                     _DefaultBusErrorHandler:
  5669                           	callstack 121
  5670  004A8C  0012               	return		;funcret
  5671  004A8E                     __end_of_DefaultBusErrorHandler:
  5672                           	callstack 0
  5673                           
  5674                           ;
  5675                           ; Interrupt Vector Table @ 0x8
  5676                           ;
  5677                           
  5678                           	psect	ivt0x8
  5679  000008                     __pivt0x8:
  5680                           	callstack 0
  5681  000008                     ivt0x8_base:
  5682                           	callstack 0
  5683                           
  5684                           ; high-priority vector
  5685  000008  EF5A  F021         	goto	_INTERRUPT_InterruptManager
  5686  000018                     	org	16
  5687                           
  5688                           ; low-priority vector
  5689  000018  00FF               	reset	
  5690                           
  5691                           	psect	text52
  5692  000000                     __ptext52:
  5693                           	callstack 0
  5694  000000                     
  5695                           	psect	rparam
  5696  0000                     
  5697                           	psect	idloc
  5698                           
  5699                           ;Config register IDLOC0 @ 0x200000
  5700                           ;	unspecified, using default values
  5701  200000                     	org	2097152
  5702  200000  0FFF               	dw	4095
  5703                           
  5704                           ;Config register IDLOC1 @ 0x200002
  5705                           ;	unspecified, using default values
  5706  200002                     	org	2097154
  5707  200002  0FFF               	dw	4095
  5708                           
  5709                           ;Config register IDLOC2 @ 0x200004
  5710                           ;	unspecified, using default values
  5711  200004                     	org	2097156
  5712  200004  0FFF               	dw	4095
  5713                           
  5714                           ;Config register IDLOC3 @ 0x200006
  5715                           ;	unspecified, using default values
  5716  200006                     	org	2097158
  5717  200006  0FFF               	dw	4095
  5718                           
  5719                           ;Config register IDLOC4 @ 0x200008
  5720                           ;	unspecified, using default values
  5721  200008                     	org	2097160
  5722  200008  0FFF               	dw	4095
  5723                           
  5724                           ;Config register IDLOC5 @ 0x20000A
  5725                           ;	unspecified, using default values
  5726  20000A                     	org	2097162
  5727  20000A  0FFF               	dw	4095
  5728                           
  5729                           ;Config register IDLOC6 @ 0x20000C
  5730                           ;	unspecified, using default values
  5731  20000C                     	org	2097164
  5732  20000C  0FFF               	dw	4095
  5733                           
  5734                           ;Config register IDLOC7 @ 0x20000E
  5735                           ;	unspecified, using default values
  5736  20000E                     	org	2097166
  5737  20000E  0FFF               	dw	4095
  5738                           
  5739                           ;Config register IDLOC8 @ 0x200010
  5740                           ;	unspecified, using default values
  5741  200010                     	org	2097168
  5742  200010  0FFF               	dw	4095
  5743                           
  5744                           ;Config register IDLOC9 @ 0x200012
  5745                           ;	unspecified, using default values
  5746  200012                     	org	2097170
  5747  200012  0FFF               	dw	4095
  5748                           
  5749                           ;Config register IDLOC10 @ 0x200014
  5750                           ;	unspecified, using default values
  5751  200014                     	org	2097172
  5752  200014  0FFF               	dw	4095
  5753                           
  5754                           ;Config register IDLOC11 @ 0x200016
  5755                           ;	unspecified, using default values
  5756  200016                     	org	2097174
  5757  200016  0FFF               	dw	4095
  5758                           
  5759                           ;Config register IDLOC12 @ 0x200018
  5760                           ;	unspecified, using default values
  5761  200018                     	org	2097176
  5762  200018  0FFF               	dw	4095
  5763                           
  5764                           ;Config register IDLOC13 @ 0x20001A
  5765                           ;	unspecified, using default values
  5766  20001A                     	org	2097178
  5767  20001A  0FFF               	dw	4095
  5768                           
  5769                           ;Config register IDLOC14 @ 0x20001C
  5770                           ;	unspecified, using default values
  5771  20001C                     	org	2097180
  5772  20001C  0FFF               	dw	4095
  5773                           
  5774                           ;Config register IDLOC15 @ 0x20001E
  5775                           ;	unspecified, using default values
  5776  20001E                     	org	2097182
  5777  20001E  0FFF               	dw	4095
  5778                           
  5779                           	psect	config
  5780                           
  5781                           ;Config register CONFIG1 @ 0x300000
  5782                           ;	External Oscillator Selection
  5783                           ;	FEXTOSC = HS, HS (crystal oscillator) above 8 MHz
  5784                           ;	Reset Oscillator Selection
  5785                           ;	RSTOSC = EXTOSC_4PLL, EXTOSC with 4x PLL, with EXTOSC operating per FEXTOSC bits
  5786  300000                     	org	3145728
  5787  300000  AA                 	db	170
  5788                           
  5789                           ;Config register CONFIG2 @ 0x300001
  5790                           ;	Clock out Enable bit
  5791                           ;	CLKOUTEN = OFF, CLKOUT function is disabled
  5792                           ;	PRLOCKED One-Way Set Enable bit
  5793                           ;	PR1WAY = ON, PRLOCKED bit can be cleared and set only once
  5794                           ;	Clock Switch Enable bit
  5795                           ;	CSWEN = ON, Writing to NOSC and NDIV is allowed
  5796                           ;	JTAG Enable bit
  5797                           ;	JTAGEN = ON, Enable JTAG Boundary Scan mode and pins
  5798                           ;	Fail-Safe Clock Monitor Enable bit
  5799                           ;	FCMEN = ON, Fail-Safe Clock Monitor enabled
  5800                           ;	Fail-Safe Clock Monitor -Primary XTAL Enable bit
  5801                           ;	FCMENP = ON, FSCM timer will set FSCMP bit and OSFIF interrupt on Primary XTAL failure
  5802                           ;	Fail-Safe Clock Monitor -Secondary XTAL Enable bit
  5803                           ;	FCMENS = ON, FSCM timer will set FSCMS bit and OSFIF interrupt on Secondary XTAL failu
      +                          re
  5804  300001                     	org	3145729
  5805  300001  FF                 	db	255
  5806                           
  5807                           ;Config register CONFIG3 @ 0x300002
  5808                           ;	MCLR Enable bit
  5809                           ;	MCLRE = EXTMCLR, If LVP = 0, MCLR pin is MCLR; If LVP = 1, RE3 pin function is MCLR
  5810                           ;	Power-up timer selection bits
  5811                           ;	PWRTS = PWRT_OFF, PWRT is disabled
  5812                           ;	Multi-vector enable bit
  5813                           ;	MVECEN = OFF, Interrupt contoller does not use vector table to prioritze interrupts
  5814                           ;	IVTLOCK bit One-way set enable bit
  5815                           ;	IVT1WAY = ON, IVTLOCKED bit can be cleared and set only once
  5816                           ;	Low Power BOR Enable bit
  5817                           ;	LPBOREN = OFF, Low-Power BOR disabled
  5818                           ;	Brown-out Reset Enable bits
  5819                           ;	BOREN = SBORDIS, Brown-out Reset enabled , SBOREN bit is ignored
  5820  300002                     	org	3145730
  5821  300002  F7                 	db	247
  5822                           
  5823                           ;Config register CONFIG4 @ 0x300003
  5824                           ;	Brown-out Reset Voltage Selection bits
  5825                           ;	BORV = VBOR_1P9, Brown-out Reset Voltage (VBOR) set to 1.9V
  5826                           ;	ZCD Disable bit
  5827                           ;	ZCD = OFF, ZCD module is disabled. ZCD can be enabled by setting the ZCDSEN bit of ZCD
      +                          CON
  5828                           ;	PPSLOCK bit One-Way Set Enable bit
  5829                           ;	PPS1WAY = ON, PPSLOCKED bit can be cleared and set only once; PPS registers remain loc
      +                          ked after one clear/set cycle
  5830                           ;	Stack Full/Underflow Reset Enable bit
  5831                           ;	STVREN = ON, Stack full/underflow will cause Reset
  5832                           ;	Low Voltage Programming Enable bit
  5833                           ;	LVP = ON, Low voltage programming enabled. MCLR/VPP pin function is MCLR. MCLRE config
      +                          uration bit is ignored
  5834                           ;	Extended Instruction Set Enable bit
  5835                           ;	XINST = OFF, Extended Instruction Set and Indexed Addressing Mode disabled
  5836  300003                     	org	3145731
  5837  300003  FF                 	db	255
  5838                           
  5839                           ;Config register CONFIG5 @ 0x300004
  5840                           ;	WDT Period selection bits
  5841                           ;	WDTCPS = WDTCPS_31, Divider ratio 1:65536; software control of WDTPS
  5842                           ;	WDT operating mode
  5843                           ;	WDTE = OFF, WDT Disabled; SWDTEN is ignored
  5844  300004                     	org	3145732
  5845  300004  9F                 	db	159
  5846                           
  5847                           ;Config register CONFIG6 @ 0x300005
  5848                           ;	WDT Window Select bits
  5849                           ;	WDTCWS = WDTCWS_7, window always open (100%); software control; keyed access not requi
      +                          red
  5850                           ;	WDT input clock selector
  5851                           ;	WDTCCS = LFINTOSC, WDT reference clock is the 31.0 kHz LFINTOSC
  5852  300005                     	org	3145733
  5853  300005  C7                 	db	199
  5854                           
  5855                           ;Config register CONFIG7 @ 0x300006
  5856                           ;	Boot Block Size selection bits
  5857                           ;	BBSIZE = BBSIZE_512, Boot Block size is 512 words
  5858                           ;	Boot Block enable bit
  5859                           ;	BBEN = OFF, Boot block disabled
  5860                           ;	Storage Area Flash enable bit
  5861                           ;	SAFEN = OFF, SAF disabled
  5862  300006                     	org	3145734
  5863  300006  FF                 	db	255
  5864                           
  5865                           ;Config register CONFIG8 @ 0x300007
  5866                           ;	Boot Block Write Protection bit
  5867                           ;	WRTB = OFF, Boot Block not Write protected
  5868                           ;	Configuration Register Write Protection bit
  5869                           ;	WRTC = OFF, Configuration registers not Write protected
  5870                           ;	Data EEPROM Write Protection bit
  5871                           ;	WRTD = OFF, Data EEPROM not Write protected
  5872                           ;	SAF Write protection bit
  5873                           ;	WRTSAF = OFF, SAF not Write Protected
  5874                           ;	Application Block write protection bit
  5875                           ;	WRTAPP = OFF, Application Block not write protected
  5876  300007                     	org	3145735
  5877  300007  FF                 	db	255
  5878                           
  5879                           ;Config register CONFIG9 @ 0x300008
  5880                           ;	CRC on boot output pin selection
  5881                           ;	BOOTPINSEL = RC5, CRC on boot output pin is RC5
  5882                           ;	CRC on boot output pin enable bit
  5883                           ;	BPEN = OFF, CRC on boot output pin disabled
  5884                           ;	CRC on boot output pin open drain bit
  5885                           ;	ODCON = OFF, Pin drives both high-going and low-going signals
  5886  300008                     	org	3145736
  5887  300008  FF                 	db	255
  5888                           
  5889                           ;Config register CONFIG10 @ 0x300009
  5890                           ;	PFM and Data EEPROM Code Protection bit
  5891                           ;	CP = OFF, PFM and Data EEPROM code protection disabled
  5892  300009                     	org	3145737
  5893  300009  FF                 	db	255
  5894                           
  5895                           ;Config register CONFIG11 @ 0x30000A
  5896                           ;	CRC on boot scan enable for boot area
  5897                           ;	BOOTSCEN = OFF, CRC on boot will not include the boot area of program memory in its ca
      +                          lculation
  5898                           ;	CRC on boot Continue on Error for boot areas bit
  5899                           ;	BOOTCOE = HALT, CRC on boot will stop device if error is detected in boot areas
  5900                           ;	CRC on boot application code scan enable
  5901                           ;	APPSCEN = OFF, CRC on boot will not include the application area of program memory in 
      +                          its calculation
  5902                           ;	CRC on boot SAF area scan enable
  5903                           ;	SAFSCEN = OFF, CRC on boot will not include the SAF area of program memory in its calc
      +                          ulation
  5904                           ;	CRC on boot Data EEPROM scan enable
  5905                           ;	DATASCEN = OFF, CRC on boot will not include data EEPROM in its calculation
  5906                           ;	CRC on boot Config fuses scan enable
  5907                           ;	CFGSCEN = OFF, CRC on boot will not include the configuration fuses in its calculation
  5908                           ;	CRC on boot Continue on Error for non-boot areas bit
  5909                           ;	COE = HALT, CRC on boot will stop device if error is detected in non-boot areas
  5910                           ;	Boot on CRC Enable bit
  5911                           ;	BOOTPOR = OFF, CRC on boot will not run
  5912  30000A                     	org	3145738
  5913  30000A  FF                 	db	255
  5914                           
  5915                           ;Config register CONFIG12 @ 0x30000B
  5916                           ;	Boot Sector Polynomial for CRC on boot bits 31-24
  5917                           ;	BCRCPOLT = hFF, Bits 31:24 of BCRCPOL are 0xFF
  5918  30000B                     	org	3145739
  5919  30000B  FF                 	db	255
  5920                           
  5921                           ;Config register CONFIG13 @ 0x30000C
  5922                           ;	Boot Sector Polynomial for CRC on boot bits 23-16
  5923                           ;	BCRCPOLU = hFF, Bits 23:16 of BCRCPOL are 0xFF
  5924  30000C                     	org	3145740
  5925  30000C  FF                 	db	255
  5926                           
  5927                           ;Config register CONFIG14 @ 0x30000D
  5928                           ;	Boot Sector Polynomial for CRC on boot bits 15-8
  5929                           ;	BCRCPOLH = hFF, Bits 15:8 of BCRCPOL are 0xFF
  5930  30000D                     	org	3145741
  5931  30000D  FF                 	db	255
  5932                           
  5933                           ;Config register CONFIG15 @ 0x30000E
  5934                           ;	Boot Sector Polynomial for CRC on boot bits 7-0
  5935                           ;	BCRCPOLL = hFF, Bits 7:0 of BCRCPOL are 0xFF
  5936  30000E                     	org	3145742
  5937  30000E  FF                 	db	255
  5938                           
  5939                           ;Config register CONFIG16 @ 0x30000F
  5940                           ;	Boot Sector Seed for CRC on boot bits 31-24
  5941                           ;	BCRCSEEDT = hFF, Bits 31:24 of BCRCSEED are 0xFF
  5942  30000F                     	org	3145743
  5943  30000F  FF                 	db	255
  5944                           
  5945                           ;Config register CONFIG17 @ 0x300010
  5946                           ;	Boot Sector Seed for CRC on boot bits 23-16
  5947                           ;	BCRCSEEDU = hFF, Bits 23:16 of BCRCSEED are 0xFF
  5948  300010                     	org	3145744
  5949  300010  FF                 	db	255
  5950                           
  5951                           ;Config register CONFIG18 @ 0x300011
  5952                           ;	Boot Sector Seed for CRC on boot bits 15-8
  5953                           ;	BCRCSEEDH = hFF, Bits 15:8 of BCRCSEED are 0xFF
  5954  300011                     	org	3145745
  5955  300011  FF                 	db	255
  5956                           
  5957                           ;Config register CONFIG19 @ 0x300012
  5958                           ;	Boot Sector Seed for CRC on boot bits 7-0
  5959                           ;	BCRCSEEDL = hFF, Bits 7:0 of BCRCSEED are 0xFF
  5960  300012                     	org	3145746
  5961  300012  FF                 	db	255
  5962                           
  5963                           ;Config register CONFIG20 @ 0x300013
  5964                           ;	unspecified, using default values
  5965                           ;	Boot Sector Expected Result for CRC on boot bits 31-24
  5966                           ;	BCRCEREST = 0xFF, unprogrammed default
  5967  300013                     	org	3145747
  5968  300013  FF                 	db	255
  5969                           
  5970                           ;Config register CONFIG21 @ 0x300014
  5971                           ;	unspecified, using default values
  5972                           ;	Boot Sector Expected Result for CRC on boot bits 23-16
  5973                           ;	BCRCERESU = 0xFF, unprogrammed default
  5974  300014                     	org	3145748
  5975  300014  FF                 	db	255
  5976                           
  5977                           ;Config register CONFIG22 @ 0x300015
  5978                           ;	unspecified, using default values
  5979                           ;	Boot Sector Expected Result for CRC on boot bits 15-8
  5980                           ;	BCRCERESH = 0xFF, unprogrammed default
  5981  300015                     	org	3145749
  5982  300015  FF                 	db	255
  5983                           
  5984                           ;Config register CONFIG23 @ 0x300016
  5985                           ;	unspecified, using default values
  5986                           ;	Boot Sector Expected Result for CRC on boot bits 7-0
  5987                           ;	BCRCERESL = 0xFF, unprogrammed default
  5988  300016                     	org	3145750
  5989  300016  FF                 	db	255
  5990                           
  5991                           ;Config register CONFIG24 @ 0x300017
  5992                           ;	Non-Boot Sector Polynomial for CRC on boot bits 31-24
  5993                           ;	CRCPOLT = hFF, Bits 31:24 of CRCPOL are 0xFF
  5994  300017                     	org	3145751
  5995  300017  FF                 	db	255
  5996                           
  5997                           ;Config register CONFIG25 @ 0x300018
  5998                           ;	Non-Boot Sector Polynomial for CRC on boot bits 23-16
  5999                           ;	CRCPOLU = hFF, Bits 23:16 of CRCPOL are 0xFF
  6000  300018                     	org	3145752
  6001  300018  FF                 	db	255
  6002                           
  6003                           ;Config register CONFIG26 @ 0x300019
  6004                           ;	Non-Boot Sector Polynomial for CRC on boot bits 15-8
  6005                           ;	CRCPOLH = hFF, Bits 15:8 of CRCPOL are 0xFF
  6006  300019                     	org	3145753
  6007  300019  FF                 	db	255
  6008                           
  6009                           ;Config register CONFIG27 @ 0x30001A
  6010                           ;	Non-Boot Sector Polynomial for CRC on boot bits 7-0
  6011                           ;	CRCPOLL = hFF, Bits 7:0 of CRCPOL are 0xFF
  6012  30001A                     	org	3145754
  6013  30001A  FF                 	db	255
  6014                           
  6015                           ;Config register CONFIG28 @ 0x30001B
  6016                           ;	Non-Boot Sector Seed for CRC on boot bits 31-24
  6017                           ;	CRCSEEDT = hFF, Bits 31:24 of CRCSEED are 0xFF
  6018  30001B                     	org	3145755
  6019  30001B  FF                 	db	255
  6020                           
  6021                           ;Config register CONFIG29 @ 0x30001C
  6022                           ;	Non-Boot Sector Seed for CRC on boot bits 23-16
  6023                           ;	CRCSEEDU = hFF, Bits 23:16 of CRCSEED are 0xFF
  6024  30001C                     	org	3145756
  6025  30001C  FF                 	db	255
  6026                           
  6027                           ;Config register CONFIG30 @ 0x30001D
  6028                           ;	Non-Boot Sector Seed for CRC on boot bits 15-8
  6029                           ;	CRCSEEDH = hFF, Bits 15:8 of CRCSEED are 0xFF
  6030  30001D                     	org	3145757
  6031  30001D  FF                 	db	255
  6032                           
  6033                           ;Config register CONFIG31 @ 0x30001E
  6034                           ;	Non-Boot Sector Seed for CRC on boot bits 7-0
  6035                           ;	CRCSEEDL = hFF, Bits 7:0 of CRCSEED are 0xFF
  6036  30001E                     	org	3145758
  6037  30001E  FF                 	db	255
  6038                           
  6039                           ;Config register CONFIG32 @ 0x30001F
  6040                           ;	unspecified, using default values
  6041                           ;	Non-Boot Sector Expected Result for CRC on boot bits 31-24
  6042                           ;	CRCEREST = 0xFF, unprogrammed default
  6043  30001F                     	org	3145759
  6044  30001F  FF                 	db	255
  6045                           
  6046                           ;Config register CONFIG33 @ 0x300020
  6047                           ;	unspecified, using default values
  6048                           ;	Non-Boot Sector Expected Result for CRC on boot bits 23-16
  6049                           ;	CRCERESU = 0xFF, unprogrammed default
  6050  300020                     	org	3145760
  6051  300020  FF                 	db	255
  6052                           
  6053                           ;Config register CONFIG34 @ 0x300021
  6054                           ;	unspecified, using default values
  6055                           ;	Non-Boot Sector Expected Result for CRC on boot bits 15-8
  6056                           ;	CRCERESH = 0xFF, unprogrammed default
  6057  300021                     	org	3145761
  6058  300021  FF                 	db	255
  6059                           
  6060                           ;Config register CONFIG35 @ 0x300022
  6061                           ;	unspecified, using default values
  6062                           ;	Non-Boot Sector Expected Result for CRC on boot bits 7-0
  6063                           ;	CRCERESL = 0xFF, unprogrammed default
  6064  300022                     	org	3145762
  6065  300022  FF                 	db	255
  6066                           
  6067                           ; Padding undefined space
  6068  300023                     	org	3145763
  6069  300023  FF                 	db	255
  6070                           tosu	equ	0x4FF
  6071                           tosh	equ	0x4FE
  6072                           tosl	equ	0x4FD
  6073                           stkptr	equ	0x4FC
  6074                           pclatu	equ	0x4FB
  6075                           pclath	equ	0x4FA
  6076                           pcl	equ	0x4F9
  6077                           tblptru	equ	0x4F8
  6078                           tblptrh	equ	0x4F7
  6079                           tblptrl	equ	0x4F6
  6080                           tablat	equ	0x4F5
  6081                           prodh	equ	0x4F4
  6082                           prodl	equ	0x4F3
  6083                           indf0	equ	0x4EF
  6084                           postinc0	equ	0x4EE
  6085                           postdec0	equ	0x4ED
  6086                           preinc0	equ	0x4EC
  6087                           plusw0	equ	0x4EB
  6088                           fsr0h	equ	0x4EA
  6089                           fsr0l	equ	0x4E9
  6090                           wreg	equ	0x4E8
  6091                           indf1	equ	0x4E7
  6092                           postinc1	equ	0x4E6
  6093                           postdec1	equ	0x4E5
  6094                           preinc1	equ	0x4E4
  6095                           plusw1	equ	0x4E3
  6096                           fsr1h	equ	0x4E2
  6097                           fsr1l	equ	0x4E1
  6098                           bsr	equ	0x4E0
  6099                           indf2	equ	0x4DF
  6100                           postinc2	equ	0x4DE
  6101                           postdec2	equ	0x4DD
  6102                           preinc2	equ	0x4DC
  6103                           plusw2	equ	0x4DB
  6104                           fsr2h	equ	0x4DA
  6105                           fsr2l	equ	0x4D9
  6106                           status	equ	0x4D8

Data Sizes:
    Strings     0
    Constant    11
    Data        10
    BSS         32
    Persistent  3
    Stack       0

Auto Spaces:
    Space          Size  Autos    Used
    COMRAM           95     68      90
    BANK5           160      3      26
    BANK6           256      0       0
    BANK7           256      0       0
    BANK8           256      0       0
    BANK9           256      0       0
    BANK10          256      0       0
    BANK11          256      0       0
    BANK12          256      0       0
    BANK13          256      0       0
    BANK14          256      0       0
    BANK15          256      0       0
    BANK16          256      0       0
    BANK17          256      0       0
    BANK18          256      0       0
    BANK19          256      0       0
    BANK20          256      0       0
    BANK21          256      0       0
    BANK22          256      0       0
    BANK23          256      0       0
    BANK24          256      0       0
    BANK25          256      0       0
    BANK26          256      0       0
    BANK27          256      0       0
    BANK28          256      0       0
    BANK29          256      0       0
    BANK30          256      0       0
    BANK31          256      0       0
    BANK32          256      0       0
    BANK33          256      0       0
    BANK34          256      0       0
    BANK35          256      0       0
    BANK36          256      0       0
    BANK37          256      0       0
    BANK38          256      0       0
    BANK39          256      0       0
    BANK40          256      0       0
    BANK41          256      0       0
    BANK42          256      0       0
    BANK43          256      0       0
    BANK44          256      0       0
    BANK45          256      0       0
    BANK46          256      0       0
    BANK47          256      0       0
    BANK48          256      0       0
    BANK49          256      0       0
    BANK50          256      0       0
    BANK51          256      0       0
    BANK52          256      0       0
    BANK53          256      0       0
    BANK54          256      0       0
    BANK55          256      0       0

Pointer List with Targets:

    memcpy@d1	PTR void  size(2) Largest target is 14335
		 -> RAM(DATA[14335]), rxMsgData(COMRAM[8]), 

    memcpy@d	PTR unsigned char  size(2) Largest target is 14335
		 -> RAM(DATA[14335]), rxMsgData(COMRAM[8]), 

    memcpy@s1	PTR const void  size(2) Largest target is 14335
		 -> C1__ReceiveFIFO1NotEmptyHandler@data_Out(COMRAM[8]), TU16A__C1_TransmitInterruptHandler@Transmit_Data(COMRAM[8]), RAM(DATA[14335]), rxMsgData(COMRAM[8]), 

    memcpy@s	PTR const unsigned char  size(2) Largest target is 14335
		 -> C1__ReceiveFIFO1NotEmptyHandler@data_Out(COMRAM[8]), TU16A__C1_TransmitInterruptHandler@Transmit_Data(COMRAM[8]), RAM(DATA[14335]), rxMsgData(COMRAM[8]), 

    Return_Message.data	PTR unsigned char  size(2) Largest target is 8
		 -> C1__ReceiveFIFO1NotEmptyHandler@data_Out(COMRAM[8]), TU16A__C1_TransmitInterruptHandler@Transmit_Data(COMRAM[8]), rxMsgData(COMRAM[8]), 

    Currently_Processing.data	PTR unsigned char  size(2) Largest target is 8
		 -> C1__ReceiveFIFO1NotEmptyHandler@data_Out(COMRAM[8]), TU16A__C1_TransmitInterruptHandler@Transmit_Data(COMRAM[8]), rxMsgData(COMRAM[8]), 

    Transmission.data	PTR unsigned char  size(2) Largest target is 8
		 -> C1__ReceiveFIFO1NotEmptyHandler@data_Out(COMRAM[8]), TU16A__C1_TransmitInterruptHandler@Transmit_Data(COMRAM[8]), rxMsgData(COMRAM[8]), 

    TU16A_SetInterruptHandler@InterruptHandler	PTR FTN()void  size(3) Largest target is 1
		 -> TU16A__C1_TransmitInterruptHandler(), 

    TU16A_InterruptHandler	PTR FTN()void  size(3) Largest target is 1
		 -> Absolute function(), TU16A__C1_TransmitInterruptHandler(), 

    CAN1_SetFIFO1NotEmptyHandler@handler	PTR FTN()void  size(3) Largest target is 1
		 -> C1__ReceiveFIFO1NotEmptyHandler(), 

    CAN1_FIFO1NotEmptyHandler	PTR FTN()void  size(3) Largest target is 1
		 -> Absolute function(), C1__ReceiveFIFO1NotEmptyHandler(), 

    CAN1_SetRxBufferOverFlowInterruptHandler@handler	PTR FTN()void  size(3) Largest target is 1
		 -> DefaultRxBufferOverflowHandler(), 

    CAN1_RxBufferOverflowHandler	PTR FTN()void  size(3) Largest target is 1
		 -> Absolute function(), DefaultRxBufferOverflowHandler(), 

    CAN1_SetTxAttemptInterruptHandler@handler	PTR FTN()void  size(3) Largest target is 1
		 -> DefaultTxAttemptHandler(), 

    CAN1_TxAttemptHandler	PTR FTN()void  size(3) Largest target is 1
		 -> Absolute function(), DefaultTxAttemptHandler(), 

    CAN1_SetSystemErrorInterruptHandler@handler	PTR FTN()void  size(3) Largest target is 1
		 -> DefaultSystemErrorHandler(), 

    CAN1_SystemErrorHandler	PTR FTN()void  size(3) Largest target is 1
		 -> Absolute function(), DefaultSystemErrorHandler(), 

    CAN1_SetModeChangeInterruptHandler@handler	PTR FTN()void  size(3) Largest target is 1
		 -> DefaultModeChangeHandler(), 

    CAN1_ModeChangeHandler	PTR FTN()void  size(3) Largest target is 1
		 -> Absolute function(), DefaultModeChangeHandler(), 

    CAN1_SetBusErrorInterruptHandler@handler	PTR FTN()void  size(3) Largest target is 1
		 -> DefaultBusErrorHandler(), 

    CAN1_BusErrorHandler	PTR FTN()void  size(3) Largest target is 1
		 -> Absolute function(), DefaultBusErrorHandler(), 

    CAN1_SetBusWakeUpActivityInterruptHandler@handler	PTR FTN()void  size(3) Largest target is 1
		 -> DefaultBusWakeUpActivityHandler(), 

    CAN1_BusWakeUpActivityHandler	PTR FTN()void  size(3) Largest target is 1
		 -> Absolute function(), DefaultBusWakeUpActivityHandler(), 

    CAN1_SetInvalidMessageInterruptHandler@handler	PTR FTN()void  size(3) Largest target is 1
		 -> DefaultInvalidMessageHandler(), 

    CAN1_InvalidMessageHandler	PTR FTN()void  size(3) Largest target is 1
		 -> Absolute function(), DefaultInvalidMessageHandler(), 

    CAN1_Transmit@txFifoObj	PTR unsigned char  size(2) Largest target is 14335
		 -> RAM(DATA[14335]), 

    CAN1_Transmit@txCanMsg	PTR struct . size(2) Largest target is 8
		 -> C1__ReceiveFIFO1NotEmptyHandler@Return_Message(COMRAM[7]), TU16A__C1_TransmitInterruptHandler@Transmission(COMRAM[7]), 

    ValidateTransmission@txCanMsg.data	PTR unsigned char  size(2) Largest target is 8
		 -> C1__ReceiveFIFO1NotEmptyHandler@data_Out(COMRAM[8]), TU16A__C1_TransmitInterruptHandler@Transmit_Data(COMRAM[8]), rxMsgData(COMRAM[8]), 

    ValidateTransmission@txCanMsg	PTR struct . size(2) Largest target is 8
		 -> C1__ReceiveFIFO1NotEmptyHandler@Return_Message(COMRAM[7]), TU16A__C1_TransmitInterruptHandler@Transmission(COMRAM[7]), 

    WriteMessageToFifo@txFifoObj	PTR unsigned char  size(2) Largest target is 14335
		 -> RAM(DATA[14335]), 

    WriteMessageToFifo@txCanMsg.data	PTR unsigned char  size(2) Largest target is 8
		 -> C1__ReceiveFIFO1NotEmptyHandler@data_Out(COMRAM[8]), TU16A__C1_TransmitInterruptHandler@Transmit_Data(COMRAM[8]), rxMsgData(COMRAM[8]), 

    WriteMessageToFifo@txCanMsg	PTR struct . size(2) Largest target is 8
		 -> C1__ReceiveFIFO1NotEmptyHandler@Return_Message(COMRAM[7]), TU16A__C1_TransmitInterruptHandler@Transmission(COMRAM[7]), 

    CAN1_ReceiveFrom@rxCanMsg	PTR struct . size(2) Largest target is 8
		 -> C1__ReceiveFIFO1NotEmptyHandler@Currently_Processing(COMRAM[7]), 

    Receive@rxCanMsg	PTR struct . size(2) Largest target is 8
		 -> C1__ReceiveFIFO1NotEmptyHandler@Currently_Processing(COMRAM[7]), 

    Receive@rxFifoObj	PTR unsigned char  size(2) Largest target is 14335
		 -> RAM(DATA[14335]), 

    sp__memcpy	PTR void  size(2) Largest target is 14335
		 -> RAM(DATA[14335]), rxMsgData(COMRAM[8]), 

    S565$data	PTR unsigned char  size(2) Largest target is 8
		 -> C1__ReceiveFIFO1NotEmptyHandler@data_Out(COMRAM[8]), TU16A__C1_TransmitInterruptHandler@Transmit_Data(COMRAM[8]), rxMsgData(COMRAM[8]), 

    ReadMessageFromFifo@rxCanMsg.data	PTR unsigned char  size(2) Largest target is 8
		 -> C1__ReceiveFIFO1NotEmptyHandler@data_Out(COMRAM[8]), TU16A__C1_TransmitInterruptHandler@Transmit_Data(COMRAM[8]), rxMsgData(COMRAM[8]), 

    ReadMessageFromFifo@rxCanMsg	PTR struct . size(2) Largest target is 8
		 -> C1__ReceiveFIFO1NotEmptyHandler@Currently_Processing(COMRAM[7]), 

    ReadMessageFromFifo@rxFifoObj	PTR unsigned char  size(2) Largest target is 14335
		 -> RAM(DATA[14335]), 

    FIFO	const PTR volatile struct CAN_FIFOREG size(2) Largest target is 1
		 -> C1TXQCONL(SFR_1[1]), 


Critical Paths under _main in COMRAM

    None.

Critical Paths under _INTERRUPT_InterruptManager in COMRAM

    _TU16A_ISR->_TU16A__C1_TransmitInterruptHandler
    _TU16A__C1_TransmitInterruptHandler->_CAN1_Transmit
    _CAN1_RXI_ISR->_C1__ReceiveFIFO1NotEmptyHandler
    _C1__ReceiveFIFO1NotEmptyHandler->_CAN1_ReceiveFrom
    _CAN1_TransmitFIFOStatusGet->_isTxChannel
    _CAN1_Transmit->_WriteMessageToFifo
    _WriteMessageToFifo->_memcpy
    _ValidateTransmission->_GetTxFifoStatus
    _CAN1_ReceivedMessageCountGet->_GetRxFifoDepth
    _CAN1_ReceiveFrom->_Receive
    _Receive->_ReadMessageFromFifo
    _ReadMessageFromFifo->_memcpy

Critical Paths under _main in BANK5

    _TU16A_Initialize->_TU16A_SetInterruptHandler
    _CAN1_Initialize->_CAN1_OperationModeSet
    _CAN1_RX_FIFO_Configuration->_CAN1_SetFIFO1NotEmptyHandler
    _CAN1_ErrorNotificationInterruptEnable->_CAN1_SetBusErrorInterruptHandler
    _CAN1_ErrorNotificationInterruptEnable->_CAN1_SetBusWakeUpActivityInterruptHandler
    _CAN1_ErrorNotificationInterruptEnable->_CAN1_SetInvalidMessageInterruptHandler
    _CAN1_ErrorNotificationInterruptEnable->_CAN1_SetModeChangeInterruptHandler
    _CAN1_ErrorNotificationInterruptEnable->_CAN1_SetRxBufferOverFlowInterruptHandler
    _CAN1_ErrorNotificationInterruptEnable->_CAN1_SetSystemErrorInterruptHandler
    _CAN1_ErrorNotificationInterruptEnable->_CAN1_SetTxAttemptInterruptHandler

Critical Paths under _INTERRUPT_InterruptManager in BANK5

    None.

Critical Paths under _main in BANK6

    None.

Critical Paths under _INTERRUPT_InterruptManager in BANK6

    None.

Critical Paths under _main in BANK7

    None.

Critical Paths under _INTERRUPT_InterruptManager in BANK7

    None.

Critical Paths under _main in BANK8

    None.

Critical Paths under _INTERRUPT_InterruptManager in BANK8

    None.

Critical Paths under _main in BANK9

    None.

Critical Paths under _INTERRUPT_InterruptManager in BANK9

    None.

Critical Paths under _main in BANK10

    None.

Critical Paths under _INTERRUPT_InterruptManager in BANK10

    None.

Critical Paths under _main in BANK11

    None.

Critical Paths under _INTERRUPT_InterruptManager in BANK11

    None.

Critical Paths under _main in BANK12

    None.

Critical Paths under _INTERRUPT_InterruptManager in BANK12

    None.

Critical Paths under _main in BANK13

    None.

Critical Paths under _INTERRUPT_InterruptManager in BANK13

    None.

Critical Paths under _main in BANK14

    None.

Critical Paths under _INTERRUPT_InterruptManager in BANK14

    None.

Critical Paths under _main in BANK15

    None.

Critical Paths under _INTERRUPT_InterruptManager in BANK15

    None.

Critical Paths under _main in BANK16

    None.

Critical Paths under _INTERRUPT_InterruptManager in BANK16

    None.

Critical Paths under _main in BANK17

    None.

Critical Paths under _INTERRUPT_InterruptManager in BANK17

    None.

Critical Paths under _main in BANK18

    None.

Critical Paths under _INTERRUPT_InterruptManager in BANK18

    None.

Critical Paths under _main in BANK19

    None.

Critical Paths under _INTERRUPT_InterruptManager in BANK19

    None.

Critical Paths under _main in BANK20

    None.

Critical Paths under _INTERRUPT_InterruptManager in BANK20

    None.

Critical Paths under _main in BANK21

    None.

Critical Paths under _INTERRUPT_InterruptManager in BANK21

    None.

Critical Paths under _main in BANK22

    None.

Critical Paths under _INTERRUPT_InterruptManager in BANK22

    None.

Critical Paths under _main in BANK23

    None.

Critical Paths under _INTERRUPT_InterruptManager in BANK23

    None.

Critical Paths under _main in BANK24

    None.

Critical Paths under _INTERRUPT_InterruptManager in BANK24

    None.

Critical Paths under _main in BANK25

    None.

Critical Paths under _INTERRUPT_InterruptManager in BANK25

    None.

Critical Paths under _main in BANK26

    None.

Critical Paths under _INTERRUPT_InterruptManager in BANK26

    None.

Critical Paths under _main in BANK27

    None.

Critical Paths under _INTERRUPT_InterruptManager in BANK27

    None.

Critical Paths under _main in BANK28

    None.

Critical Paths under _INTERRUPT_InterruptManager in BANK28

    None.

Critical Paths under _main in BANK29

    None.

Critical Paths under _INTERRUPT_InterruptManager in BANK29

    None.

Critical Paths under _main in BANK30

    None.

Critical Paths under _INTERRUPT_InterruptManager in BANK30

    None.

Critical Paths under _main in BANK31

    None.

Critical Paths under _INTERRUPT_InterruptManager in BANK31

    None.

Critical Paths under _main in BANK32

    None.

Critical Paths under _INTERRUPT_InterruptManager in BANK32

    None.

Critical Paths under _main in BANK33

    None.

Critical Paths under _INTERRUPT_InterruptManager in BANK33

    None.

Critical Paths under _main in BANK34

    None.

Critical Paths under _INTERRUPT_InterruptManager in BANK34

    None.

Critical Paths under _main in BANK35

    None.

Critical Paths under _INTERRUPT_InterruptManager in BANK35

    None.

Critical Paths under _main in BANK36

    None.

Critical Paths under _INTERRUPT_InterruptManager in BANK36

    None.

Critical Paths under _main in BANK37

    None.

Critical Paths under _INTERRUPT_InterruptManager in BANK37

    None.

Critical Paths under _main in BANK38

    None.

Critical Paths under _INTERRUPT_InterruptManager in BANK38

    None.

Critical Paths under _main in BANK39

    None.

Critical Paths under _INTERRUPT_InterruptManager in BANK39

    None.

Critical Paths under _main in BANK40

    None.

Critical Paths under _INTERRUPT_InterruptManager in BANK40

    None.

Critical Paths under _main in BANK41

    None.

Critical Paths under _INTERRUPT_InterruptManager in BANK41

    None.

Critical Paths under _main in BANK42

    None.

Critical Paths under _INTERRUPT_InterruptManager in BANK42

    None.

Critical Paths under _main in BANK43

    None.

Critical Paths under _INTERRUPT_InterruptManager in BANK43

    None.

Critical Paths under _main in BANK44

    None.

Critical Paths under _INTERRUPT_InterruptManager in BANK44

    None.

Critical Paths under _main in BANK45

    None.

Critical Paths under _INTERRUPT_InterruptManager in BANK45

    None.

Critical Paths under _main in BANK46

    None.

Critical Paths under _INTERRUPT_InterruptManager in BANK46

    None.

Critical Paths under _main in BANK47

    None.

Critical Paths under _INTERRUPT_InterruptManager in BANK47

    None.

Critical Paths under _main in BANK48

    None.

Critical Paths under _INTERRUPT_InterruptManager in BANK48

    None.

Critical Paths under _main in BANK49

    None.

Critical Paths under _INTERRUPT_InterruptManager in BANK49

    None.

Critical Paths under _main in BANK50

    None.

Critical Paths under _INTERRUPT_InterruptManager in BANK50

    None.

Critical Paths under _main in BANK51

    None.

Critical Paths under _INTERRUPT_InterruptManager in BANK51

    None.

Critical Paths under _main in BANK52

    None.

Critical Paths under _INTERRUPT_InterruptManager in BANK52

    None.

Critical Paths under _main in BANK53

    None.

Critical Paths under _INTERRUPT_InterruptManager in BANK53

    None.

Critical Paths under _main in BANK54

    None.

Critical Paths under _INTERRUPT_InterruptManager in BANK54

    None.

Critical Paths under _main in BANK55

    None.

Critical Paths under _INTERRUPT_InterruptManager in BANK55

    None.

Call Graph Tables:

 ---------------------------------------------------------------------------------
 (Depth) Function   	        Calls       Base Space   Used Autos Params    Refs
 ---------------------------------------------------------------------------------
 (0) _main                                                 0     0      0    1086
                  _SYSTEM_Initialize
 ---------------------------------------------------------------------------------
 (1) _SYSTEM_Initialize                                    0     0      0    1086
                    _CAN1_Initialize
               _INTERRUPT_Initialize
              _OSCILLATOR_Initialize
             _PIN_MANAGER_Initialize
                     _PMD_Initialize
                   _TU16A_Initialize
 ---------------------------------------------------------------------------------
 (2) _TU16A_Initialize                                     0     0      0      98
          _TU16A_SetInterruptHandler
 ---------------------------------------------------------------------------------
 (3) _TU16A_SetInterruptHandler                            3     0      3      98
                                              0 BANK5      3     0      3
 ---------------------------------------------------------------------------------
 (2) _PMD_Initialize                                       0     0      0       0
 ---------------------------------------------------------------------------------
 (2) _PIN_MANAGER_Initialize                               0     0      0       0
 ---------------------------------------------------------------------------------
 (2) _OSCILLATOR_Initialize                                0     0      0       0
 ---------------------------------------------------------------------------------
 (2) _INTERRUPT_Initialize                                 0     0      0       0
 ---------------------------------------------------------------------------------
 (2) _CAN1_Initialize                                      0     0      0     988
          _CAN1_BitRateConfiguration
_CAN1_ErrorNotificationInterruptEnab
              _CAN1_OperationModeSet
         _CAN1_RX_FIFO_Configuration
_CAN1_RX_FIFO_FilterMaskConfiguratio
             _CAN1_RX_FIFO_ResetInfo
         _CAN1_TX_FIFO_Configuration
 ---------------------------------------------------------------------------------
 (3) _CAN1_TX_FIFO_Configuration                           0     0      0       0
 ---------------------------------------------------------------------------------
 (3) _CAN1_RX_FIFO_ResetInfo                               1     1      0      68
                                              0 BANK5      1     1      0
 ---------------------------------------------------------------------------------
 (3) _CAN1_RX_FIFO_FilterMaskConfiguration                 0     0      0       0
 ---------------------------------------------------------------------------------
 (3) _CAN1_RX_FIFO_Configuration                           0     0      0      98
       _CAN1_SetFIFO1NotEmptyHandler
 ---------------------------------------------------------------------------------
 (4) _CAN1_SetFIFO1NotEmptyHandler                         3     0      3      98
                                              0 BANK5      3     0      3
 ---------------------------------------------------------------------------------
 (3) _CAN1_OperationModeSet                                3     3      0     136
                                              0 BANK5      3     3      0
              _CAN1_OperationModeGet
 ---------------------------------------------------------------------------------
 (4) _CAN1_OperationModeGet                                0     0      0       0
 ---------------------------------------------------------------------------------
 (3) _CAN1_ErrorNotificationInterruptEnable                0     0      0     686
   _CAN1_SetBusErrorInterruptHandler
_CAN1_SetBusWakeUpActivityInterruptH
_CAN1_SetInvalidMessageInterruptHand
 _CAN1_SetModeChangeInterruptHandler
_CAN1_SetRxBufferOverFlowInterruptHa
_CAN1_SetSystemErrorInterruptHandler
  _CAN1_SetTxAttemptInterruptHandler
 ---------------------------------------------------------------------------------
 (4) _CAN1_SetTxAttemptInterruptHandler                    3     0      3      98
                                              0 BANK5      3     0      3
 ---------------------------------------------------------------------------------
 (4) _CAN1_SetSystemErrorInterruptHandler                  3     0      3      98
                                              0 BANK5      3     0      3
 ---------------------------------------------------------------------------------
 (4) _CAN1_SetRxBufferOverFlowInterruptHandler             3     0      3      98
                                              0 BANK5      3     0      3
 ---------------------------------------------------------------------------------
 (4) _CAN1_SetModeChangeInterruptHandler                   3     0      3      98
                                              0 BANK5      3     0      3
 ---------------------------------------------------------------------------------
 (4) _CAN1_SetInvalidMessageInterruptHandler               3     0      3      98
                                              0 BANK5      3     0      3
 ---------------------------------------------------------------------------------
 (4) _CAN1_SetBusWakeUpActivityInterruptHandler            3     0      3      98
                                              0 BANK5      3     0      3
 ---------------------------------------------------------------------------------
 (4) _CAN1_SetBusErrorInterruptHandler                     3     0      3      98
                                              0 BANK5      3     0      3
 ---------------------------------------------------------------------------------
 (3) _CAN1_BitRateConfiguration                            0     0      0       0
 ---------------------------------------------------------------------------------
 Estimated maximum stack depth 4
 ---------------------------------------------------------------------------------
 (Depth) Function   	        Calls       Base Space   Used Autos Params    Refs
 ---------------------------------------------------------------------------------
 (5) _INTERRUPT_InterruptManager                           4     4      0    8663
                                             64 COMRAM     4     4      0
                           _CAN1_ISR
                       _CAN1_RXI_ISR
                          _TU16A_ISR
 ---------------------------------------------------------------------------------
 (6) _TU16A_ISR                                            0     0      0    2408
                   Absolute function *
 _TU16A__C1_TransmitInterruptHandler *
 ---------------------------------------------------------------------------------
 (7) _TU16A__C1_TransmitInterruptHandler                  16    16      0    2408
                                             28 COMRAM    16    16      0
                      _CAN1_Transmit
         _CAN1_TransmitFIFOStatusGet
 ---------------------------------------------------------------------------------
 (6) _CAN1_RXI_ISR                                         0     0      0    6255
                   Absolute function *
    _C1__ReceiveFIFO1NotEmptyHandler *
 ---------------------------------------------------------------------------------
 (7) _C1__ReceiveFIFO1NotEmptyHandler                     26    26      0    6255
                                             38 COMRAM    26    26      0
                   _CAN1_ReceiveFrom
       _CAN1_ReceivedMessageCountGet
                      _CAN1_Transmit
         _CAN1_TransmitFIFOStatusGet
 ---------------------------------------------------------------------------------
 (8) _CAN1_TransmitFIFOStatusGet                           2     2      0     151
                                              2 COMRAM     2     2      0
                    _GetTxFifoStatus
                        _isTxChannel
 ---------------------------------------------------------------------------------
 (8) _CAN1_Transmit                                        6     4      2    2057
                                             22 COMRAM     6     4      2
               _ValidateTransmission
                 _WriteMessageToFifo
                        _isTxChannel
 ---------------------------------------------------------------------------------
 (9) _isTxChannel                                          2     2      0      68
                                              0 COMRAM     2     2      0
 ---------------------------------------------------------------------------------
 (9) _WriteMessageToFifo                                  12     8      4    1356
                                             11 COMRAM    11     7      4
                             _memcpy
 ---------------------------------------------------------------------------------
 (9) _ValidateTransmission                                 9     7      2     274
                                              1 COMRAM     8     6      2
                    _GetTxFifoStatus
            i2_CAN1_OperationModeGet
 ---------------------------------------------------------------------------------
 (10) i2_CAN1_OperationModeGet                             0     0      0       0
 ---------------------------------------------------------------------------------
 (9) _GetTxFifoStatus                                      1     1      0      15
                                              0 COMRAM     1     1      0
 ---------------------------------------------------------------------------------
 (8) _CAN1_ReceivedMessageCountGet                         8     8      0     541
                                              2 COMRAM     8     8      0
                     _GetRxFifoDepth
                    _GetRxFifoStatus
 ---------------------------------------------------------------------------------
 (8) _CAN1_ReceiveFrom                                     6     4      2    2184
                                             32 COMRAM     6     4      2
                            _Receive
 ---------------------------------------------------------------------------------
 (9) _Receive                                             10     7      3    1928
                                             22 COMRAM    10     7      3
                     _GetRxFifoDepth
                    _GetRxFifoStatus
                _ReadMessageFromFifo
 ---------------------------------------------------------------------------------
 (10) _ReadMessageFromFifo                                12     8      4    1268
                                             11 COMRAM    11     7      4
                             _memcpy
 ---------------------------------------------------------------------------------
 (10) _memcpy                                             11     5      6     599
                                              0 COMRAM    11     5      6
 ---------------------------------------------------------------------------------
 (9) _GetRxFifoStatus                                      1     1      0      22
                                              0 COMRAM     1     1      0
 ---------------------------------------------------------------------------------
 (9) _GetRxFifoDepth                                       2     2      0      22
                                              0 COMRAM     2     2      0
 ---------------------------------------------------------------------------------
 (6) _CAN1_ISR                                             0     0      0       0
                   Absolute function *
             _DefaultBusErrorHandler *
    _DefaultBusWakeUpActivityHandler *
       _DefaultInvalidMessageHandler *
           _DefaultModeChangeHandler *
     _DefaultRxBufferOverflowHandler *
          _DefaultSystemErrorHandler *
            _DefaultTxAttemptHandler *
 ---------------------------------------------------------------------------------
 (7) _DefaultTxAttemptHandler                              0     0      0       0
 ---------------------------------------------------------------------------------
 (7) _DefaultSystemErrorHandler                            0     0      0       0
 ---------------------------------------------------------------------------------
 (7) _DefaultRxBufferOverflowHandler                       0     0      0       0
 ---------------------------------------------------------------------------------
 (7) _DefaultModeChangeHandler                             0     0      0       0
 ---------------------------------------------------------------------------------
 (7) _DefaultInvalidMessageHandler                         0     0      0       0
 ---------------------------------------------------------------------------------
 (7) _DefaultBusWakeUpActivityHandler                      0     0      0       0
 ---------------------------------------------------------------------------------
 (7) _DefaultBusErrorHandler                               0     0      0       0
 ---------------------------------------------------------------------------------
 (7) Absolute function(Fake)                               0     0      0       0
 ---------------------------------------------------------------------------------
 Estimated maximum stack depth 10
 ---------------------------------------------------------------------------------

 Call Graph Graphs:

 _main (ROOT)
   _SYSTEM_Initialize
     _CAN1_Initialize
       _CAN1_BitRateConfiguration
       _CAN1_ErrorNotificationInterruptEnable
         _CAN1_SetBusErrorInterruptHandler
         _CAN1_SetBusWakeUpActivityInterruptHandler
         _CAN1_SetInvalidMessageInterruptHandler
         _CAN1_SetModeChangeInterruptHandler
         _CAN1_SetRxBufferOverFlowInterruptHandler
         _CAN1_SetSystemErrorInterruptHandler
         _CAN1_SetTxAttemptInterruptHandler
       _CAN1_OperationModeSet
         _CAN1_OperationModeGet
       _CAN1_RX_FIFO_Configuration
         _CAN1_SetFIFO1NotEmptyHandler
       _CAN1_RX_FIFO_FilterMaskConfiguration
       _CAN1_RX_FIFO_ResetInfo
       _CAN1_TX_FIFO_Configuration
     _INTERRUPT_Initialize
     _OSCILLATOR_Initialize
     _PIN_MANAGER_Initialize
     _PMD_Initialize
     _TU16A_Initialize
       _TU16A_SetInterruptHandler

 _INTERRUPT_InterruptManager (ROOT)
   _CAN1_ISR
     Absolute function(Fake) *
     _DefaultBusErrorHandler *
     _DefaultBusWakeUpActivityHandler *
     _DefaultInvalidMessageHandler *
     _DefaultModeChangeHandler *
     _DefaultRxBufferOverflowHandler *
     _DefaultSystemErrorHandler *
     _DefaultTxAttemptHandler *
   _CAN1_RXI_ISR
     Absolute function(Fake) *
     _C1__ReceiveFIFO1NotEmptyHandler *
       _CAN1_ReceiveFrom
         _Receive
           _GetRxFifoDepth
           _GetRxFifoStatus
           _ReadMessageFromFifo
             _memcpy
       _CAN1_ReceivedMessageCountGet
         _GetRxFifoDepth
         _GetRxFifoStatus
       _CAN1_Transmit
         _ValidateTransmission
           _GetTxFifoStatus
           i2_CAN1_OperationModeGet
         _WriteMessageToFifo
           _memcpy
         _isTxChannel
       _CAN1_TransmitFIFOStatusGet
         _GetTxFifoStatus
         _isTxChannel
   _TU16A_ISR
     Absolute function(Fake) *
     _TU16A__C1_TransmitInterruptHandler *
       _CAN1_Transmit
       _CAN1_TransmitFIFOStatusGet

 Address spaces:
Name               Size   Autos  Total    Cost      Usage
BIGRAM            32FF      0       0     107        0.0%
EEDATA             400      0       0       0        0.0%
BITBANK55          100      0       0     105        0.0%
BANK55             100      0       0     106        0.0%
BITBANK54          100      0       0     103        0.0%
BANK54             100      0       0     104        0.0%
BITBANK53          100      0       0     101        0.0%
BANK53             100      0       0     102        0.0%
BITBANK52          100      0       0      99        0.0%
BANK52             100      0       0     100        0.0%
BITBANK51          100      0       0      97        0.0%
BANK51             100      0       0      98        0.0%
BITBANK50          100      0       0      95        0.0%
BANK50             100      0       0      96        0.0%
BITBANK49          100      0       0      93        0.0%
BANK49             100      0       0      94        0.0%
BITBANK48          100      0       0      91        0.0%
BANK48             100      0       0      92        0.0%
BITBANK47          100      0       0      89        0.0%
BANK47             100      0       0      90        0.0%
BITBANK46          100      0       0      87        0.0%
BANK46             100      0       0      88        0.0%
BITBANK45          100      0       0      85        0.0%
BANK45             100      0       0      86        0.0%
BITBANK44          100      0       0      83        0.0%
BANK44             100      0       0      84        0.0%
BITBANK43          100      0       0      81        0.0%
BANK43             100      0       0      82        0.0%
BITBANK42          100      0       0      79        0.0%
BANK42             100      0       0      80        0.0%
BITBANK41          100      0       0      77        0.0%
BANK41             100      0       0      78        0.0%
BITBANK40          100      0       0      75        0.0%
BANK40             100      0       0      76        0.0%
BITBANK39          100      0       0      73        0.0%
BANK39             100      0       0      74        0.0%
BITBANK38          100      0       0      71        0.0%
BANK38             100      0       0      72        0.0%
BITBANK37          100      0       0      69        0.0%
BANK37             100      0       0      70        0.0%
BITBANK36          100      0       0      67        0.0%
BANK36             100      0       0      68        0.0%
BITBANK35          100      0       0      65        0.0%
BANK35             100      0       0      66        0.0%
BITBANK34          100      0       0      63        0.0%
BANK34             100      0       0      64        0.0%
BITBANK33          100      0       0      61        0.0%
BANK33             100      0       0      62        0.0%
BITBANK32          100      0       0      59        0.0%
BANK32             100      0       0      60        0.0%
BITBANK31          100      0       0      57        0.0%
BANK31             100      0       0      58        0.0%
BITBANK30          100      0       0      55        0.0%
BANK30             100      0       0      56        0.0%
BITBANK29          100      0       0      53        0.0%
BANK29             100      0       0      54        0.0%
BITBANK28          100      0       0      51        0.0%
BANK28             100      0       0      52        0.0%
BITBANK27          100      0       0      48        0.0%
BANK27             100      0       0      49        0.0%
BITBANK26          100      0       0      46        0.0%
BANK26             100      0       0      47        0.0%
BITBANK25          100      0       0      44        0.0%
BANK25             100      0       0      45        0.0%
BITBANK24          100      0       0      42        0.0%
BANK24             100      0       0      43        0.0%
BITBANK23          100      0       0      40        0.0%
BANK23             100      0       0      41        0.0%
BITBANK22          100      0       0      38        0.0%
BANK22             100      0       0      39        0.0%
BITBANK21          100      0       0      36        0.0%
BANK21             100      0       0      37        0.0%
BITBANK20          100      0       0      34        0.0%
BANK20             100      0       0      35        0.0%
BITBANK19          100      0       0      32        0.0%
BANK19             100      0       0      33        0.0%
BITBANK18          100      0       0      30        0.0%
BANK18             100      0       0      31        0.0%
BITBANK17          100      0       0      28        0.0%
BANK17             100      0       0      29        0.0%
BITBANK16          100      0       0      26        0.0%
BANK16             100      0       0      27        0.0%
BITBANK15          100      0       0      24        0.0%
BANK15             100      0       0      25        0.0%
BITBANK14          100      0       0      22        0.0%
BANK14             100      0       0      23        0.0%
BITBANK13          100      0       0      20        0.0%
BANK13             100      0       0      21        0.0%
BITBANK12          100      0       0      18        0.0%
BANK12             100      0       0      19        0.0%
BITBANK11          100      0       0      16        0.0%
BANK11             100      0       0      17        0.0%
BITBANK10          100      0       0      14        0.0%
BANK10             100      0       0      15        0.0%
BITBANK9           100      0       0      12        0.0%
BANK9              100      0       0      13        0.0%
BITBANK8           100      0       0      10        0.0%
BANK8              100      0       0      11        0.0%
BITBANK7           100      0       0       8        0.0%
BANK7              100      0       0       9        0.0%
BITBANK6           100      0       0       6        0.0%
BANK6              100      0       0       7        0.0%
BITBANK5            A0      0       0       4        0.0%
BANK5               A0      3      1A       5       16.2%
BITCOMRAM           5F      0       0       0        0.0%
COMRAM              5F     44      5A       1       94.7%
BITSFR_5             0      0       0     200        0.0%
SFR_5                0      0       0     200        0.0%
BITSFR_4             0      0       0     200        0.0%
SFR_4                0      0       0     200        0.0%
BITSFR_3             0      0       0     200        0.0%
SFR_3                0      0       0     200        0.0%
BITSFR_2             0      0       0     200        0.0%
SFR_2                0      0       0     200        0.0%
BITSFR_1             0      0       0     200        0.0%
SFR_1                0      0       0     200        0.0%
BITSFR               0      0       0     200        0.0%
SFR                  0      0       0     200        0.0%
STACK                0      0       0       2        0.0%
NULL                 0      0       0       0        0.0%
ABS                  0      0      74      50        0.0%
DATA                 0      0      74       3        0.0%
CODE                 0      0       0       0        0.0%


Microchip Technology PIC18 Macro Assembler V2.32 build 20210201212658 
Symbol Table                                                                                   Fri Jul 02 12:21:08 2021

                             CAN1_ReceiveFrom@status 0524                                                   l57 45DE  
                                                 l79 4A7C                                     _CAN1_ReceiveFrom 4640  
                                                l141 4916                                                  l310 4874  
                                                l135 4974                                                  l144 48C8  
                                                l313 493C                                                  l322 447E  
                                                l138 4908                                                  l307 4846  
                                                l340 4A66                                                  l316 49B8  
                                                l333 43AC                                                  l326 474A  
                                                l319 49CC                                                  l336 43E6  
                                                l441 4A40                                                  l337 43E8  
                                                l450 4A32                                                  l444 4A4E  
                                                l453 4A16                                                  l614 49D8  
                                                l447 4A5C                                                  l519 4798  
                                                l456 4A08                                                  l474 49FA  
                                                l459 4A24                                                  l599 49EC  
                                       ?_isTxChannel 0501                             ?_DefaultTxAttemptHandler 0501  
                            __size_of_PMD_Initialize 0028                                                  prod 0004F3  
                                                tosl 0004FD                                                  wreg 0004E8  
                         _CAN1_InvalidMessageHandler 0572                                                 l2121 4A26  
                                               l2113 49EE                                                 l2115 4A34  
                                               l2123 4A0A                                                 l2117 4A42  
                                               l2125 49FC                                                 l2301 43BC  
                                               l2119 4A50                                                 l2127 4A18  
                                               l2303 43C6                                                 l2129 4A5E  
                                               l2305 43E2                                                 l2401 45C4  
                                               l2251 4820                                                 l2403 45C6  
                                               l2411 48A2                                                 l2261 486C  
                                               l2253 4834                                                 l2405 45C8  
                                               l2421 477C                                                 l2413 474C  
                                               l2263 4870                                                 l2255 4836  
                                               l2247 481A                                                 l2271 49A6  
                                               l2431 46F4                                                 l2407 45CA  
                                               l2423 477E                                                 l2415 4750  
                                               l2273 49BA                                                 l2281 4470  
                                               l2265 4872                                                 l2257 4848  
                                               l2441 4734                                                 l2433 46F8  
                                               l2409 4A7A                                                 l2425 4790  
                                               l2417 4778                                                 l2283 4474  
                                               l2275 43EA                                                 l2291 435C  
                                               l2259 485A                                                 l2267 4918  
                                               l2443 4738                                                 l2435 470E  
                                               l2427 4792                                                 l2419 477A  
                                               l2611 4964                    CAN1_ReceivedMessageCountGet@index 050A  
                                               l2285 4478                                                 l2277 4468  
                                               l2293 4364                                                 l2269 492A  
                                               l2445 473C                                                 l2437 472C  
                                               l2429 48F2                                                 l2613 4968  
                                               l2287 447C                                                 l2279 446A  
                                               l2295 4376                                                 l2447 4740  
                                               l2439 4730                                                 l2391 49E0  
                                               l2615 496C                                                 l2607 495C  
                                               l2297 4386                                                 l2289 4356  
                                               l2449 4744                                                 l2393 457C  
                                               l2617 4970                                                 l2609 4960  
                                               l2299 4398                                                 l2395 458C  
                                               l2651 49CE                                                 l2397 45C0  
                                               l2653 49D2                                                 l2399 45C2  
                                               l2655 49D4                                                 l2657 49D6  
                                               _FIFO 380A                                   _WriteMessageToFifo 380E  
                                               u1400 4846                                                 u1401 4842  
                                               u1410 4376                                                 u1411 4372  
                                               u1420 4386                                                 u1421 4382  
                                               _LATA 0004BE                                                 u1430 4398  
                                               _LATB 0004BF                                                 u1431 4394  
                                               _LATC 0004C0                                                 u1440 43BC  
                                               u1441 43B8                                                 u1450 43DE  
                                               u1451 43DA                                                 u1570 4916  
                                               u1571 4912                                                 u1580 470E  
                                               u1581 470A                                         _CAN1_RXI_ISR 4876  
                                               _PMD0 000060                                                 _PMD1 000061  
                                               _PMD2 000062                                                 _PMD3 000063  
                                               _PMD4 000064                                                 _PMD5 000065  
                                               _PMD6 000066                                                 _PMD7 000067  
                                               _PMD8 000068                                                 i2l90 4338  
                                               i2l84 42F0                                                 i2l86 4314  
                                               i2l87 4338                                                 _PLLR 000590  
                                               _WPUA 000401                                                 _WPUB 000409  
                                               _WPUC 000411                                                 _WPUE 000421  
                            __size_of_GetRxFifoDepth 001E                               __size_of_CAN1_Transmit 0094  
                                   __end_of_CAN1_ISR 4024            __end_of_CAN1_SetTxAttemptInterruptHandler 4A0A  
         __size_of_CAN1_SetTxAttemptInterruptHandler 000E                  ??_CAN1_SetTxAttemptInterruptHandler 0578  
                 ?_CAN1_SetTxAttemptInterruptHandler 0575                    _CAN1_SetTxAttemptInterruptHandler 49FC  
                             CAN1_Transmit@txFifoObj 051A                                                 _main 49CE  
                                               fsr1h 0004E2                                                 fsr2h 0004DA  
                                               indf1 0004E7                                                 indf2 0004DF  
                                               fsr1l 0004E1                                                 fsr2l 0004D9  
                                               prodl 0004F3                                                 start 001A  
                                ?_WriteMessageToFifo 050C                                         ___param_bank 000000  
               __end_of_DefaultInvalidMessageHandler 4A8A                __size_of_DefaultInvalidMessageHandler 0002  
                       _DefaultInvalidMessageHandler 4A88           CAN1_SetSystemErrorInterruptHandler@handler 0575  
                                    __end_of_Receive 4110                  CAN1_SetFIFO1NotEmptyHandler@handler 0575  
                                 __size_of_TU16A_ISR 0042                                     _TU16A_Initialize 474C  
                     __size_of_OSCILLATOR_Initialize 0026                        __end_of_OSCILLATOR_Initialize 4918  
                 __size_of_TU16A_SetInterruptHandler 000E                           WriteMessageToFifo@txCanMsg 050E  
                                              ?_main 0501             __end_of_CAN1_SetBusErrorInterruptHandler 4A5E  
          __size_of_CAN1_SetBusErrorInterruptHandler 000E                   ??_CAN1_SetBusErrorInterruptHandler 0578  
                  ?_CAN1_SetBusErrorInterruptHandler 0575                     _CAN1_SetBusErrorInterruptHandler 4A50  
                         ?_TU16A_SetInterruptHandler 0575                                                i2l302 4A84  
                                    _isTxChannel$861 0501                                                i2l410 4512  
                                              i2l340 4A70                                                i2l404 41E8  
                                              i2l350 3C92                                                i2l414 48F0  
                                              i2l343 495A                                                i2l407 4512  
                                              i2l290 4A8C                                                i2l346 49A4  
                                              i2l284 4A88                                                i2l293 4A86  
                                              i2l357 410E                                                i2l381 42B2  
                                              i2l287 4A8A                                                i2l471 4022  
                                              i2l296 4A82                                                i2l369 4698  
                                              i2l385 4816                                                i2l633 463E  
                                              i2l386 4818                                                i2l299 4A80  
                                              i2l467 3FE4                                                i2l395 3A52  
                                              i2l644 3EBE                                                i2l469 4020  
                                              i2l389 498C                                                i2l478 48A0  
                                              i2l655 3E92                                                i2l596 47DA  
                                              _OSCEN 0000B3                                 ??_WriteMessageToFifo 0510  
                                              _TRISA 0004C6                                                _TRISB 0004C7  
                                              _TRISC 0004C8                                                _TRISE 0004CA  
                       __size_of_ReadMessageFromFifo 0240                             ??_DefaultBusErrorHandler 0501  
           TU16A__C1_TransmitInterruptHandler@F22653 0550                             __size_of_CAN1_Initialize 0058  
                           __size_of_GetRxFifoStatus 0018                                                pclath 0004FA  
                                              tablat 0004F5                            ??i2_CAN1_OperationModeGet 0501  
                                              plusw1 0004E3                                                plusw2 0004DB  
                        GetRxFifoStatus@validChannel 0501                                                status 0004D8  
           CAN1_SetTxAttemptInterruptHandler@handler 0575                             ReadMessageFromFifo@msgId 0512  
                       ??_CAN1_TX_FIFO_Configuration 0575                                         __end_of_FIFO 380C  
                                    __initialization 4514                                    __end_of_DLC_BYTES 380A  
                                CAN1_Transmit@status 0519              CAN1_ReceivedMessageCountGet@rxMsgStatus 0505  
                                       __end_of_main 49E0                          CAN1_RX_FIFO_ResetInfo@index 0575  
                    __end_of_DefaultTxAttemptHandler 4A82                          ?_INTERRUPT_InterruptManager 0501  
                                      _CAN1_Transmit 4480                      fp__DefaultInvalidMessageHandler 0000  
                      ?_DefaultInvalidMessageHandler 0501                                      Receive@rxCanMsg 0518  
                                             ??_main 0578                                        __activetblptr 000003  
                  __end_of_TU16A_SetInterruptHandler 49EE                fp__TU16A__C1_TransmitInterruptHandler 0000  
         __end_of_TU16A__C1_TransmitInterruptHandler 4640          __size_of_TU16A__C1_TransmitInterruptHandler 0060  
               ??_TU16A__C1_TransmitInterruptHandler 051D                  ?_TU16A__C1_TransmitInterruptHandler 0501  
                 _TU16A__C1_TransmitInterruptHandler 45E0       __end_of_CAN1_SetInvalidMessageInterruptHandler 4A42  
    __size_of_CAN1_SetInvalidMessageInterruptHandler 000E             ??_CAN1_SetInvalidMessageInterruptHandler 0578  
            ?_CAN1_SetInvalidMessageInterruptHandler 0575               _CAN1_SetInvalidMessageInterruptHandler 4A34  
                                             _C1CONH 000101                                               _C1CONL 000100  
                                             _C1CONU 000102                                               _C1INTH 00011D  
                                             _C1INTL 00011C                                               _C1INTT 00011F  
                                             _C1INTU 00011E                    __size_of_DefaultModeChangeHandler 0002  
      CAN1_SetInvalidMessageInterruptHandler@handler 0575                            ?_DefaultModeChangeHandler 0501  
                           __size_of_GetTxFifoStatus 0018                  __size_of_CAN1_TX_FIFO_Configuration 0014  
                                             _ANSELA 000400                                               _ANSELB 000408  
                                             _ANSELC 000410                    fp__DefaultRxBufferOverflowHandler 0000  
                   ??_DefaultRxBufferOverflowHandler 0501                      ?_DefaultRxBufferOverflowHandler 0501  
                        WriteMessageToFifo@txFifoObj 050C                                               _RC4PPS 000215  
                                             _ODCONA 000402                                               _ODCONB 00040A  
                                             _ODCONC 000412                                               i2l2101 3BC8  
                                             i2l2111 3C7E                                               i2l2103 3BDC  
                                             i2l2105 3BEE                                               i2l2201 393C  
                                             i2l2107 3C12                                               i2l1403 4978  
                                             i2l2211 39E0                                               i2l2203 3962  
                                             i2l1341 46F2                                               i2l2061 46D4  
                                             i2l2053 469A                                               i2l2109 3C36  
                                             i2l2141 405C                                               i2l2133 4026  
                                             i2l2221 4126                                               i2l2213 39FA  
                                             i2l2205 3986                                               i2l2055 46AE  
                                             i2l2063 46D8                                               i2l2151 40D2  
                                             i2l2143 406E                                               i2l2135 402A  
                                             i2l1407 4A68                                               i2l2231 4170  
                                             i2l2223 4134                                               i2l2215 4112  
                                             i2l2207 39AA                                               i2l2065 4940  
                                             i2l2057 46BE                                               i2l2081 3AAC  
                                             i2l2073 3A54                                               i2l2153 40E6  
                                             i2l2145 4082                                               i2l2137 4032  
                                             i2l2321 4686                                               i2l2241 41E2  
                                             i2l2233 4184                                               i2l2225 4148  
                                             i2l2217 4116                                               i2l2209 39CE  
                                             i2l2059 46C2                                               i2l2091 3B62  
                                             i2l2083 3AD8                                               i2l2075 3A64  
                                             i2l2155 40F4                                               i2l2147 4096  
                                             i2l2139 4040                                               i2l2323 4696  
                                             i2l2315 464A                                               i2l2331 41F2  
                                             i2l2243 41E6                                               i2l2235 4186  
                                             i2l2227 414A                                               i2l2219 4126  
                                             i2l2163 47DE                                               i2l2069 4990  
                                             i2l2093 3B76                                               i2l2085 3B06  
                                             i2l2077 3A64                                               i2l2157 4108  
                                             i2l2149 40A8                                               i2l2317 466C  
                                             i2l2309 4642                                               i2l2341 4232  
                                             i2l2333 4206                                               i2l2237 41CA  
                                             i2l2229 4162                                               i2l2181 3862  
                                             i2l2173 380E                                               i2l2165 47E2  
                                             i2l2501 3D28                                               i2l2095 3B90  
                                             i2l2087 3B36                                               i2l2079 3A82  
                                             i2l2159 410C                                               i2l2319 4684  
                                             i2l2351 4294                                               i2l2343 423A  
                                             i2l2335 420E                                               i2l2327 41EA  
                                             i2l2239 41CC                                               i2l2183 3876  
                                             i2l2191 38C0                                               i2l2175 3832  
                                             i2l2167 47F2                                               i2l2511 3D56  
                                             i2l2503 3D2C                                               i2l2601 401E  
                                             i2l2097 3BA2                                               i2l2089 3B54  
                                             i2l2345 4264                                               i2l2353 429A  
                                             i2l2337 421C                                               i2l2193 38F0  
                                             i2l2185 3888                                               i2l2177 3832  
                                             i2l2169 4812                                               i2l2521 3DBA  
                                             i2l2513 3D66                                               i2l2505 3D30  
                                             i2l2099 3BBA                                               i2l2347 4276  
                                             i2l2339 4224                                               i2l2355 429E  
                                             i2l2195 3902                                               i2l2187 3896  
                                             i2l2179 384C                                               i2l2371 44B8  
                                             i2l2363 4482                                               i2l2531 3E26  
                                             i2l2523 3DD2                                               i2l2515 3D7E  
                                             i2l2507 3D40                                               i2l2603 4876  
                                             i2l2451 45E0                                               i2l2357 42A0  
                                             i2l2349 4282                                               i2l2197 3910  
                                             i2l2189 38A8                                               i2l2373 44D4  
                                             i2l2365 4482                                               i2l2381 48CC  
                                             i2l2541 3E8A                                               i2l2533 3E38  
                                             i2l2525 3DE4                                               i2l2517 3D90  
                                             i2l2605 4886                                               i2l2461 4600  
                                             i2l2453 45F2                                               i2l2621 42DA  
                                             i2l2359 42B0                                               i2l2199 3928  
                                             i2l2375 44E6                                               i2l2367 4498  
                                             i2l2383 48D0                                               i2l2535 3E50  
                                             i2l2527 3DFC                                               i2l2519 3DA8  
                                             i2l2543 3E92                                               i2l2471 3C94  
                                             i2l2463 4602                                               i2l2455 45F4  
                                             i2l2551 479A                                               i2l2631 4330  
                                             i2l2623 42E8                                               i2l2561 3ED0  
                                             i2l2377 44FA                                               i2l2369 44A8  
                                             i2l2385 48E6                                               i2l2545 3E9A  
                                             i2l2537 3E62                                               i2l2529 3E0E  
                                             i2l2481 3CD2                                               i2l2473 3C98  
                                             i2l2465 4612                                               i2l2457 45FC  
                                             i2l2553 47AA                                               i2l2625 42FE  
                                             i2l2571 3F1E                                               i2l2563 3EEC  
                                             i2l2387 48EE                                               i2l2547 3EB0  
                                             i2l2539 3E7A                                               i2l2491 3D1A  
                                             i2l2483 3CE2                                               i2l2475 3CA0  
                                             i2l2467 461A                                               i2l2459 45FE  
                                             i2l2555 47AC                                               i2l2627 430C  
                                             i2l2619 42CC                                               i2l2581 3F76  
                                             i2l2573 3F2C                                               i2l2565 3EF0  
                                             i2l2493 3D1C                                               i2l2485 3CF2  
                                             i2l2477 3CB4                                               i2l2469 4630  
                                             i2l2557 47C0                                               i2l2629 4322  
                                             i2l2591 3FB6                                               i2l2583 3F7A  
                                             i2l2575 3F48                                               i2l2567 3EFE  
                                             i2l2559 3EC0                                               i2l2495 3D1E  
                                             i2l2487 3D02                                               i2l2593 3FD2  
                                             i2l2585 3F88                                               i2l2577 3F4C  
                                             i2l2569 3F1A                                               i2l2497 3D20  
                                             i2l2489 3D12                                               i2l2595 3FE2  
                                             i2l2587 3FA4                                               i2l2579 3F5A  
                                             i2l2499 3D22                                               i2l2597 3FF2  
                                             i2l2589 3FA8                                               i2l2599 400E  
                                  __end_of_TU16A_ISR 47DC                                               _INLVLA 000404  
                                             _INLVLB 00040C                                               _INLVLC 000414  
                                             _INLVLE 000424                              ??_CAN1_OperationModeGet 0575  
                                             _OSCFRQ 0000B1                       ??_CAN1_ReceivedMessageCountGet 0503  
                            ??_CAN1_OperationModeSet 0575                                            ??_Receive 051A  
                        ??_CAN1_BitRateConfiguration 0575                   __size_of_DefaultSystemErrorHandler 0002  
                                     ?_CAN1_Transmit 0517                                               _memcpy 469A  
                                             clear_0 4556                                               clear_1 4562  
                           ??_CAN1_RX_FIFO_ResetInfo 0575                                               isa$std 000001  
          CAN1_SetModeChangeInterruptHandler@handler 0575              CAN1_ReceivedMessageCountGet@totalMsgObj 0503  
                                          ?_CAN1_ISR 0501                                       _PMD_Initialize 48A2  
                                       __pdataCOMRAM 0550                        __size_of_ValidateTransmission 00DA  
                                       __mediumconst 0000                      __size_of_DefaultBusErrorHandler 0002  
                               __size_of_isTxChannel 003E                                               tblptrh 0004F7  
                                             tblptrl 0004F6                                               tblptru 0004F8  
                                 isTxChannel@channel 0502            TU16A_SetInterruptHandler@InterruptHandler 0575  
                      __size_of_INTERRUPT_Initialize 0004                                       _GetRxFifoDepth 493E  
                           __end_of_CAN1_ReceiveFrom 469A                                    _SYSTEM_Initialize 495C  
                                         __accesstop 0560                              __end_of__initialization 4576  
                                  ??_CAN1_Initialize 0578                                 _CAN1_BusErrorHandler 056C  
                                 ?_SYSTEM_Initialize 0501                                    ??_GetRxFifoStatus 0501  
                                      ___rparam_used 000001                               _CAN1_ModeChangeHandler 0569  
                                     __pcstackCOMRAM 0501                                         __pidataBANK5 4A7E  
                                ??_SYSTEM_Initialize 0578     __end_of_CAN1_SetRxBufferOverFlowInterruptHandler 4A26  
  __size_of_CAN1_SetRxBufferOverFlowInterruptHandler 000E           ??_CAN1_SetRxBufferOverFlowInterruptHandler 0578  
          ?_CAN1_SetRxBufferOverFlowInterruptHandler 0575             _CAN1_SetRxBufferOverFlowInterruptHandler 4A18  
                       ??_CAN1_TransmitFIFOStatusGet 0503                               __end_of_PMD_Initialize 48CA  
                                         ??_CAN1_ISR 0501        C1__ReceiveFIFO1NotEmptyHandler@Return_Message 053A  
                          _CAN1_BitRateConfiguration 49BA      TU16A__C1_TransmitInterruptHandler@Transmit_Data 051E  
                                 Receive@rxMsgStatus 051F                 __end_of_CAN1_SetFIFO1NotEmptyHandler 49FC  
              __size_of_CAN1_SetFIFO1NotEmptyHandler 000E                         _CAN1_SetFIFO1NotEmptyHandler 49EE  
                                      _TU16ACON0bits 000387                                        _TU16ACON1bits 000388  
        __end_of_CAN1_SetSystemErrorInterruptHandler 4A18         __size_of_CAN1_SetSystemErrorInterruptHandler 000E  
              ??_CAN1_SetSystemErrorInterruptHandler 0578                 ?_CAN1_SetSystemErrorInterruptHandler 0575  
                _CAN1_SetSystemErrorInterruptHandler 4A0A                               __end_of_GetRxFifoDepth 495C  
                          __end_of_SYSTEM_Initialize 4976                                     Receive@rxFifoObj 051D  
                                         __pbssBANK5 0560                         ValidateTransmission@txCanMsg 0502  
                           __end_of_TU16A_Initialize 479A                                           __pnvCOMRAM 0558  
                   __size_of_DefaultTxAttemptHandler 0002                   __end_of_CAN1_TX_FIFO_Configuration 49BA  
                         _CAN1_TX_FIFO_Configuration 49A6                                    ??_GetTxFifoStatus 0501  
                __size_of_CAN1_TransmitFIFOStatusGet 0028                                              IVTBASEH 00045E  
                                            IVTBASEL 00045D                                              IVTBASEU 00045F  
                                _ReadMessageFromFifo 3A54                               _DefaultBusErrorHandler 4A8C  
                             _TU16A_InterruptHandler 0558                                      ??_CAN1_Transmit 0519  
                      _CAN1_BusWakeUpActivityHandler 056F                  CAN1_ReceivedMessageCountGet@channel 0506  
                                            ?_memcpy 0501                                            _C1NBTCFGH 000105  
                                          _C1NBTCFGL 000104                                            _C1NBTCFGT 000107  
                                          _C1NBTCFGU 000106                                      ?_PMD_Initialize 0501  
                    __size_of_CAN1_RX_FIFO_ResetInfo 002E                          ??_TU16A_SetInterruptHandler 0578  
     TU16A__C1_TransmitInterruptHandler@Transmission 0526                                 ?_ReadMessageFromFifo 050C  
                                            _TU16APS 00038A                                              _OSCCON1 0000AD  
                                            _OSCCON3 0000AF                                            _C1TXQCONH 000151  
                                          _C1TXQCONL 000150                                _CAN1_TxAttemptHandler 0563  
                                          _C1TXQCONT 000153                                            _C1TXQCONU 000152  
                                            _OSCTUNE 0000B0                                          _C1FIFOCON1H 00015D  
                                        _C1FIFOCON1L 00015C                                          _C1FIFOCON1T 00015F  
                                        _C1FIFOCON1U 00015E                                              _SLRCONA 000403  
                      ?_CAN1_SetFIFO1NotEmptyHandler 0575                                              _SLRCONB 00040B  
                                            _SLRCONC 000413                                      ?_GetRxFifoDepth 0501  
                                            _TUCHAIN 0003BB  C1__ReceiveFIFO1NotEmptyHandler@Currently_Processing 0532  
                                       Receive@index 0520                                              _Receive 4024  
                                            __Hparam 0000                                              __Lparam 0000  
                       fp__DefaultSystemErrorHandler 0000                                         __psmallconst 3800  
                   __end_of_DefaultModeChangeHandler 4A88                              WriteMessageToFifo@msgId 0513  
                                          _DLC_BYTES 3801                                              __pcinit 4514  
                                    __size_of_memcpy 005A                                              __ramtop 3800  
                                            __ptext0 49CE                                              __ptext1 495C  
                                            __ptext2 474C                                              __ptext3 49E0  
                                            __ptext4 48A2                                              __ptext5 457C  
                                            __ptext6 48F2                                              __ptext7 4A7A  
                                            __ptext8 46F4                                              __ptext9 49A6  
                              ??_ReadMessageFromFifo 0510                                _OSCILLATOR_Initialize 48F2  
                          _CAN1_FIFO1NotEmptyHandler 0545                          __size_of_WriteMessageToFifo 0246  
                           ??_PIN_MANAGER_Initialize 0575                                              _rxFifos 0578  
                          ValidateTransmission@field 0509     CAN1_SetBusWakeUpActivityInterruptHandler@handler 0575  
                         __size_of_SYSTEM_Initialize 001A    __end_of_CAN1_SetBusWakeUpActivityInterruptHandler 4A50  
 __size_of_CAN1_SetBusWakeUpActivityInterruptHandler 000E          ??_CAN1_SetBusWakeUpActivityInterruptHandler 0578  
         ?_CAN1_SetBusWakeUpActivityInterruptHandler 0575            _CAN1_SetBusWakeUpActivityInterruptHandler 4A42  
                               end_of_initialization 4576                                              memcpy@d 0507  
                                            memcpy@n 0505                                              memcpy@s 0509  
                             _CAN1_RX_FIFO_ResetInfo 481A                           GetRxFifoDepth@validChannel 0502  
                                        _C1TRECUbits 000136                            _TU16A_SetInterruptHandler 49E0  
                                          _TU16ACON0 000387                                            _TU16ACON1 000388  
                     __size_of_CAN1_OperationModeGet 000A                       __size_of_CAN1_OperationModeSet 0098  
                      __end_of_CAN1_OperationModeGet 4A68                        __end_of_CAN1_OperationModeSet 43EA  
                                          _TU16ATMRH 00038C                                            _TU16ATMRL 00038B  
                                          _TU16A_ISR 479A                         ??_CAN1_RX_FIFO_Configuration 0578  
                       ReadMessageFromFifo@rxFifoObj 050C                                              postdec1 0004E5  
                                            postdec2 0004DD               __end_of_DefaultRxBufferOverflowHandler 4A86  
            __size_of_DefaultRxBufferOverflowHandler 0002                       _DefaultRxBufferOverflowHandler 4A84  
                                            postinc0 0004EE                                              postinc2 0004DE  
                 __end_of_CAN1_TransmitFIFOStatusGet 48F2                           _CAN1_TransmitFIFOStatusGet 48CA  
                 fp__C1__ReceiveFIFO1NotEmptyHandler 0000              __end_of_C1__ReceiveFIFO1NotEmptyHandler 3EC0  
           __size_of_C1__ReceiveFIFO1NotEmptyHandler 022C                    ??_C1__ReceiveFIFO1NotEmptyHandler 0527  
                   ?_C1__ReceiveFIFO1NotEmptyHandler 0501                      _C1__ReceiveFIFO1NotEmptyHandler 3C94  
                 fp__DefaultBusWakeUpActivityHandler 0000              __end_of_DefaultBusWakeUpActivityHandler 4A8C  
           __size_of_DefaultBusWakeUpActivityHandler 0002                    ??_DefaultBusWakeUpActivityHandler 0501  
                   ?_DefaultBusWakeUpActivityHandler 0501                      _DefaultBusWakeUpActivityHandler 4A8A  
                   CAN1_TransmitFIFOStatusGet@status 0503                                      _CAN1_Initialize 46F4  
                                  __size_of_CAN1_ISR 0164                                      _GetRxFifoStatus 498E  
                           ?i2_CAN1_OperationModeGet 0501                  __size_of_CAN1_RX_FIFO_Configuration 002E  
       __end_of_CAN1_RX_FIFO_FilterMaskConfiguration 493E        __size_of_CAN1_RX_FIFO_FilterMaskConfiguration 0026  
              ?_CAN1_RX_FIFO_FilterMaskConfiguration 0501               ??_CAN1_RX_FIFO_FilterMaskConfiguration 0575  
               _CAN1_RX_FIFO_FilterMaskConfiguration 4918              C1__ReceiveFIFO1NotEmptyHandler@data_Out 052A  
                   ValidateTransmission@validChannel 0507                              _DefaultTxAttemptHandler 4A80  
                         fp__DefaultTxAttemptHandler 0000                                    ?_CAN1_ReceiveFrom 0521  
                              CAN1_Transmit@txCanMsg 0517                                   ??_CAN1_ReceiveFrom 0523  
                       __end_of_ValidateTransmission 41EA                                           ?_TU16A_ISR 0501  
                    ValidateTransmission@txMsgStatus 0508                            fp__DefaultBusErrorHandler 0000  
                       __end_of_INTERRUPT_Initialize 4A7E                                        __pidataCOMRAM 4A72  
            C1__ReceiveFIFO1NotEmptyHandler@numBytes 0528                 __end_of_CAN1_ReceivedMessageCountGet 42B4  
              __size_of_CAN1_ReceivedMessageCountGet 00CA                         _CAN1_ReceivedMessageCountGet 41EA  
                                     __end_of_memcpy 46F4                               ?_OSCILLATOR_Initialize 0501  
                                      ??_isTxChannel 0501        __end_of_CAN1_ErrorNotificationInterruptEnable 4480  
     __size_of_CAN1_ErrorNotificationInterruptEnable 0096               ?_CAN1_ErrorNotificationInterruptEnable 0501  
            ??_CAN1_ErrorNotificationInterruptEnable 0578                _CAN1_ErrorNotificationInterruptEnable 43EA  
                           _DefaultModeChangeHandler 4A86                          fp__DefaultModeChangeHandler 0000  
                                     Receive@channel 0517                                  start_initialization 4514  
                    __size_of_PIN_MANAGER_Initialize 0064                                      _GetTxFifoStatus 4976  
              CAN1_TransmitFIFOStatusGet@fifoChannel 0504                                           ivt0x8_base 0008  
                                      ?_CAN1_RXI_ISR 0501                              ?_DefaultBusErrorHandler 0501  
                                  ?_TU16A_Initialize 0501           __end_of_CAN1_SetModeChangeInterruptHandler 4A34  
        __size_of_CAN1_SetModeChangeInterruptHandler 000E                 ??_CAN1_SetModeChangeInterruptHandler 0578  
                ?_CAN1_SetModeChangeInterruptHandler 0575                   _CAN1_SetModeChangeInterruptHandler 4A26  
                        ?_CAN1_TX_FIFO_Configuration 0501                                   ??_TU16A_Initialize 0578  
                                   ??_PMD_Initialize 0575                                          __pdataBANK5 0578  
                            __end_of_CAN1_Initialize 474C                                             ??_memcpy 0507  
                            __end_of_GetRxFifoStatus 49A6                           ?_DefaultSystemErrorHandler 0501  
                                   ??_GetRxFifoDepth 0501                      __end_ofi2_CAN1_OperationModeGet 4A72  
                      ?_CAN1_ReceivedMessageCountGet 0501                                          __pbssCOMRAM 0545  
                                      __pcstackBANK5 0575              CAN1_SetBusErrorInterruptHandler@handler 0575  
                          ??_DefaultTxAttemptHandler 0501                                  __end_of_isTxChannel 481A  
                                     ??_CAN1_RXI_ISR 0541                       __end_of_DefaultBusErrorHandler 4A8E  
                 __end_of_CAN1_RX_FIFO_Configuration 4876                           _CAN1_RX_FIFO_Configuration 4848  
                                        ??_TU16A_ISR 052D                                             ?_Receive 0517  
                             _PIN_MANAGER_Initialize 457C                                             _C1FIFOBA 00014C  
                                           _C1MASK0H 000191                                             _C1MASK0L 000190  
                                           _C1MASK0T 000193                                             _C1MASK0U 000192  
                              __end_of_CAN1_Transmit 4514                         ??_INTERRUPT_InterruptManager 0541  
                            __end_of_GetTxFifoStatus 498E                 CAN1_ReceivedMessageCountGet@fifoHead 0509  
                                           _CAN1_ISR 3EC0                    __end_of_DefaultSystemErrorHandler 4A84  
               CAN1_ReceivedMessageCountGet@fifoTail 0508                                          __smallconst 3800  
                                         _C1FLTCON0L 000180                                           _C1FLTOBJ0H 00018D  
                                         _C1FLTOBJ0L 00018C                                           _C1FLTOBJ0T 00018F  
                                         _C1FLTOBJ0U 00018E                                           _C1CONHbits 000101  
                               _ValidateTransmission 4110                     CAN1_OperationModeSet@requestMode 0577  
                                           _CANRXPPS 00023D                                           _C1CONTbits 000103  
                                         _C1CONUbits 000102                       ??_DefaultInvalidMessageHandler 0501  
                            ?_CAN1_RX_FIFO_ResetInfo 0501                                           _C1INTHbits 00011D  
                                         _C1INTLbits 00011C                                 _INTERRUPT_Initialize 4A7A  
                                         _C1INTTbits 00011F                                           _C1INTUbits 00011E  
               CAN1_ReceivedMessageCountGet@numOfMsg 0504                                             _LATCbits 0004C0  
                                           _PIE0bits 00049E                                             _PIE4bits 0004A2  
                                           _TU16ACLK 00038F                                             _TU16ACRH 00038C  
                                           _TU16ACRL 00038B                                             _TU16AERS 000390  
                                           _TU16AHLT 000389                                             _TU16APRH 00038E  
                                           _TU16APRL 00038D                                             i2u111_40 3B18  
                                           i2u110_48 3AEC                                             i2u111_41 3B10  
                                           i2u104_40 46F2                                             i2u120_40 47F2  
                                           i2u200_40 4330                                             i2u104_41 46EE  
                                           i2u120_41 47EE                                             i2u200_41 432C  
                                           i2u113_40 3B90                                             i2u112_48 3B1A  
                                           i2u105_40 3A94                                             i2u121_40 4812  
                                           i2u113_41 3B8C                                             i2u105_41 3A8C  
                                           i2u121_41 480E                                             i2u130_40 39C8  
                                           i2u122_40 384C                                             i2u130_41 39C0  
                                           i2u122_41 3848                                             i2u114_45 3B92  
                                           i2u107_40 3ABE                                             i2u106_48 3A96  
                                           i2u107_41 3AB6                                             i2u115_45 3BDE  
                                           i2u131_45 39CA                                             i2u123_45 3866  
                                           i2u116_40 4040                                             i2u132_40 39FA  
                                           i2u116_41 403C                                             i2u132_41 39F6  
                                           i2u124_45 38AC                                             i2u109_40 3AEA  
                                           i2u108_48 3AC0                                             i2u117_40 406E  
                                           i2u133_40 4134                                             i2u125_40 395A  
                                           i2u109_41 3AE2                                             i2u117_41 406A  
                                           i2u133_41 4130                                             i2u125_41 3952  
                                           i2u118_40 40D2                                             i2u150_40 4276  
                                           i2u134_40 4148                                             i2u126_40 3980  
                                           i2u125_48 395C                                             i2u118_41 40CE  
                                           i2u150_41 4272                                             i2u134_41 4144  
                                           i2u126_41 3978                                             i2u119_40 40F4  
                                           i2u151_40 4294                                             i2u135_40 4162  
                                           i2u119_41 40F0                                             i2u151_41 4290  
                                           i2u135_41 415E                  __size_of_INTERRUPT_InterruptManager 009E  
                                           i2u127_45 3982                                             i2u152_40 42B0  
                                           i2u136_40 4170                                             i2u128_40 39A4  
                                           i2u160_40 4630                                             i2u152_41 42AC  
                                           i2u136_41 416C                                             i2u128_41 399C  
                                           i2u160_41 462C                                             i2u137_40 4184  
                                           i2u153_40 4498                                             i2u161_40 3CB4  
                                           i2u137_41 4180                                             i2u153_41 4494  
                                           i2u161_41 3CB0                                             i2u129_45 39A6  
                                           i2u146_40 466C                                             i2u138_40 41CA  
                                           i2u154_40 44B8                                             i2u170_40 3E38  
                                           i2u162_40 3CD2                                             i2u146_41 4668  
                                           i2u138_41 41C6                                             i2u154_41 44B4  
                                           i2u170_41 3E34                                             i2u162_41 3CCE  
                                           i2u147_40 4696                                             i2u139_40 41E2  
                                           i2u155_40 44E6                                             i2u171_40 3E62  
                                           i2u163_40 3D40                                             i2u147_41 4692  
                                           i2u139_41 41DE                                             i2u155_41 44E2  
                                           i2u171_41 3E5E                                             i2u163_41 3D3C  
                                           i2u148_40 421C                                             i2u156_40 48E6  
                                           i2u172_40 3E8A                                             i2u164_40 3D52  
                                           i2u148_41 4218                                             i2u156_41 48E2  
                                           i2u172_41 3E86                                             i2u164_41 3D4E  
                                           i2u181_40 3F2C                                             i2u180_48 3F04  
                                           i2u149_40 4232                                             i2u173_40 3EB0  
                                           i2u165_40 3D66                                             i2u181_41 3F28  
                                           i2u180_49 3F1A                                             i2u149_41 422E  
                                           i2u173_41 3EAC                                             i2u165_41 3D62  
                                           i2u190_40 3FF2                                             i2u166_40 3D90  
                                           i2u174_40 47AA                                             i2u190_41 3FEE  
                                           i2u166_41 3D8C                                             i2u174_41 47A6  
                                           i2u183_40 3F5A                                             i2u182_48 3F32  
                                           i2u167_40 3DBA                                             i2u175_40 47C0  
                                           i2u183_41 3F56                                             i2u182_49 3F48  
                                           i2u167_41 3DB6                                             i2u159_41 45EA  
                                           i2u175_41 47BC                                             _PIR0bits 0004AE  
                                           i2u192_40 401E                                             i2u191_48 3FF8  
                                           i2u168_40 3DE4                                             i2u192_41 401A  
                                           i2u191_49 400E                                             i2u168_41 3DE0  
                                           i2u185_40 3F88                                             i2u184_48 3F60  
                                           i2u177_40 3ED0                                             i2u169_40 3E0E  
                                           i2u193_40 4886                                             i2u176_48 47C6  
                                           i2u185_41 3F84                                             i2u184_49 3F76  
                                           i2u177_41 3ECC                                             i2u169_41 3E0A  
                                           i2u193_41 4882                                             i2u176_49 47DA  
                                           i2u187_40 3FB6                                             i2u186_48 3F8E  
                                           i2u179_40 3EFE                                             i2u178_48 3ED6  
                                           i2u194_48 488C                                             i2u195_40 42DA  
                                           i2u187_41 3FB2                                             i2u186_49 3FA4  
                                           i2u179_41 3EFA                                             i2u178_49 3EEC  
                                           i2u194_49 48A0                                             i2u195_41 42D6  
                                          _rxMsgData 0548                                             i2u196_40 42E8  
                                           i2u196_41 42E4                                             i2u189_40 3FE2  
                                           i2u188_48 3FBC                                             i2u197_40 42FE  
                                           i2u189_41 3FDE                                             i2u188_49 3FD2  
                                           i2u197_41 42FA                                             i2u198_40 430C  
                                           i2u198_41 4308                                             i2u199_40 4322  
                                           i2u199_41 431E                                             _PIR4bits 0004B2  
                        ?_CAN1_TransmitFIFOStatusGet 0501                          __end_of_ReadMessageFromFifo 3C94  
                                           _TUIN0PPS 00024B                                     ?_CAN1_Initialize 0501  
                C1__ReceiveFIFO1NotEmptyHandler@mode 0529                           __end_of_WriteMessageToFifo 3A54  
                                   ?_GetRxFifoStatus 0501                                          _isTxChannel 47DC  
                              ?_ValidateTransmission 0502                       __end_of_CAN1_RX_FIFO_ResetInfo 4848  
                                        _INTCON0bits 0004D6                                            copy_data0 4544  
                              ?_INTERRUPT_Initialize 0501                                        Receive@status 051C  
                                           __Hrparam 0000                     __size_ofi2_CAN1_OperationModeGet 000A  
                                   __size_of_Receive 00EC                                            memcpy@tmp 050B  
                              _CAN1_OperationModeGet 4A5E                                             __Lrparam 0000  
                              _CAN1_OperationModeSet 4352                          GetTxFifoStatus@validChannel 0501  
                            _CAN1_SystemErrorHandler 0566                           ??_DefaultModeChangeHandler 0501  
                            ??_OSCILLATOR_Initialize 0575                                 __end_of_CAN1_RXI_ISR 48A2  
                          __size_of_CAN1_ReceiveFrom 005A                                     ?_GetTxFifoStatus 0501  
                           WriteMessageToFifo@status 0512                                             __pivt0x8 0008  
                                           __ptext10 481A                                             __ptext11 4918  
                                           __ptext20 4A26                                             __ptext12 4848  
                                           __ptext21 4A34                                             __ptext13 49EE  
                                           __ptext30 48CA                                             __ptext22 4A42  
                                           __ptext14 4352                                             __ptext31 4480  
                                           __ptext23 4A50                                             __ptext15 4A5E  
                                           __ptext40 3A54                                             __ptext32 47DC  
                                           __ptext24 49BA                                             __ptext16 43EA  
                                           __ptext41 469A                                             __ptext33 380E  
                                           __ptext25 42B4                                             __ptext17 49FC  
                                           __ptext50 4A8A                                             __ptext42 498E  
                                           __ptext34 4110                                             __ptext26 479A  
                                           __ptext18 4A0A                                             __ptext51 4A8C  
                                           __ptext43 493E                                             __ptext35 4A68  
                                           __ptext27 45E0                                             __ptext19 4A18  
                                           __ptext52 0000                                             __ptext44 3EC0  
                                           __ptext36 4976                                             __ptext28 4876  
                                           __ptext45 4A80                                             __ptext37 41EA  
                                           __ptext29 3C94                                             __ptext46 4A82  
                                           __ptext38 4640                                             __ptext47 4A84  
                                           __ptext39 4024                                             __ptext48 4A86  
                                           __ptext49 4A88                          CAN1_OperationModeSet@opMode 0575  
                          ReadMessageFromFifo@status 0516                          CAN1_OperationModeSet@status 0576  
                                      __size_of_main 0012                                             isa$xinst 000000  
                 C1__ReceiveFIFO1NotEmptyHandler@PID 0539                   __end_of_INTERRUPT_InterruptManager 4352  
                         _INTERRUPT_InterruptManager 42B4                            __size_of_TU16A_Initialize 004E  
                        ??_DefaultSystemErrorHandler 0501                               ??_ValidateTransmission 0504  
                       _CAN1_RxBufferOverflowHandler 0560                                             memcpy@d1 0501  
                                           memcpy@s1 0503                               ??_INTERRUPT_Initialize 0575  
                                           intlevel2 0000                                        _C1TXQSTALbits 000154  
                            ?_PIN_MANAGER_Initialize 0501                          ?_CAN1_RX_FIFO_Configuration 0501  
                 __size_of_CAN1_BitRateConfiguration 0014                       ??_CAN1_SetFIFO1NotEmptyHandler 0578  
                             ?_CAN1_OperationModeGet 0501                           ?_CAN1_BitRateConfiguration 0501  
                             ?_CAN1_OperationModeSet 0501                          ReadMessageFromFifo@rxCanMsg 050E  
                           CAN1_Transmit@fifoChannel 051C                CAN1_ReceivedMessageCountGet@fifoDepth 0507  
    CAN1_SetRxBufferOverFlowInterruptHandler@handler 0575                                      _C1FIFOSTA1Lbits 000160  
                     __end_of_PIN_MANAGER_Initialize 45E0                              CAN1_ReceiveFrom@channel 0525  
                          _DefaultSystemErrorHandler 4A82                              i2_CAN1_OperationModeGet 4A68  
                              __size_of_CAN1_RXI_ISR 002C                             CAN1_ReceiveFrom@rxCanMsg 0521  
                              CAN1_ReceiveFrom@index 0526                    __end_of_CAN1_BitRateConfiguration 49CE  
